---
triple:          'arm64-apple-darwin'
binary-path:     PmergeMe
relocations:
  - { offset: 0x3F, size: 0x8, addend: 0x0, symName: _.str, symObjAddr: 0x6D60, symBinAddr: 0x10005BB20, symSize: 0x0 }
  - { offset: 0x7F, size: 0x8, addend: 0x0, symName: _.str.1, symObjAddr: 0x6D80, symBinAddr: 0x10005BB40, symSize: 0x0 }
  - { offset: 0xA8, size: 0x8, addend: 0x0, symName: _.str.2, symObjAddr: 0x6DA0, symBinAddr: 0x10005BB60, symSize: 0x0 }
  - { offset: 0xD1, size: 0x8, addend: 0x0, symName: _.str.3, symObjAddr: 0x6E00, symBinAddr: 0x10005BBC0, symSize: 0x0 }
  - { offset: 0xFB, size: 0x8, addend: 0x0, symName: _.str.4, symObjAddr: 0x6E60, symBinAddr: 0x10005BC20, symSize: 0x0 }
  - { offset: 0x6A1C, size: 0x8, addend: 0x0, symName: __ZNSt3__16copy_nB8ne180100IPKcmPcLi0EEET1_T_T0_S4_, symObjAddr: 0x2858, symBinAddr: 0x10000403C, symSize: 0x44 }
  - { offset: 0x6A24, size: 0x8, addend: 0x0, symName: __ZNSt3__14copyB8ne180100IPKcPcEET0_T_S5_S4_, symObjAddr: 0x289C, symBinAddr: 0x100004080, symSize: 0x24C }
  - { offset: 0x6B02, size: 0x8, addend: 0x0, symName: __ZNSt3__124__put_character_sequenceB8ne180100IcNS_11char_traitsIcEEEERNS_13basic_ostreamIT_T0_EES7_PKS4_m, symObjAddr: 0x4C18, symBinAddr: 0x1000063FC, symSize: 0x840 }
  - { offset: 0x6B0A, size: 0x8, addend: 0x0, symName: __ZNKSt3__113basic_ostreamIcNS_11char_traitsIcEEE6sentrycvbB8ne180100Ev, symObjAddr: 0x5458, symBinAddr: 0x100006C3C, symSize: 0x88 }
  - { offset: 0x8379, size: 0x8, addend: 0x0, symName: __ZNSt3__1lsB8ne180100IcNS_11char_traitsIcEENS_9allocatorIcEEEERNS_13basic_ostreamIT_T0_EES9_RKNS_12basic_stringIS6_S7_T1_EE, symObjAddr: 0xC74, symBinAddr: 0x100002458, symSize: 0x4C }
  - { offset: 0x8381, size: 0x8, addend: 0x0, symName: __ZNSt3__1plB8ne180100IcNS_11char_traitsIcEENS_9allocatorIcEEEENS_12basic_stringIT_T0_T1_EERKS9_PKS6_, symObjAddr: 0xCC0, symBinAddr: 0x1000024A4, symSize: 0x2E0 }
  - { offset: 0x83EE, size: 0x8, addend: 0x0, symName: __ZNSt3__1plB8ne180100IcNS_11char_traitsIcEENS_9allocatorIcEEEENS_12basic_stringIT_T0_T1_EERKS9_PKS6_, symObjAddr: 0xCC0, symBinAddr: 0x1000024A4, symSize: 0x2E0 }
  - { offset: 0x83F6, size: 0x8, addend: 0x0, symName: __ZNSt3__112basic_stringIcNS_11char_traitsIcEENS_9allocatorIcEEEC1B8ne180100ILi0EEEPKc, symObjAddr: 0xFA0, symBinAddr: 0x100002784, symSize: 0x34 }
  - { offset: 0x84C6, size: 0x8, addend: 0x0, symName: __ZNSt3__14endlB8ne180100IcNS_11char_traitsIcEEEERNS_13basic_ostreamIT_T0_EES7_, symObjAddr: 0x1000, symBinAddr: 0x1000027E4, symSize: 0xD4 }
  - { offset: 0x84CE, size: 0x8, addend: 0x0, symName: ___clang_call_terminate, symObjAddr: 0x10D4, symBinAddr: 0x1000028B8, symSize: 0x10 }
  - { offset: 0x851B, size: 0x8, addend: 0x0, symName: __ZNSt3__1lsB8ne180100INS_11char_traitsIcEEEERNS_13basic_ostreamIcT_EES6_PKc, symObjAddr: 0x10E4, symBinAddr: 0x1000028C8, symSize: 0x48 }
  - { offset: 0x8523, size: 0x8, addend: 0x0, symName: __ZNSt3__112basic_stringIcNS_11char_traitsIcEENS_9allocatorIcEEEC2B8ne180100ILi0EEEPKc, symObjAddr: 0x112C, symBinAddr: 0x100002910, symSize: 0x208 }
  - { offset: 0x8576, size: 0x8, addend: 0x0, symName: __ZNSt3__118__constexpr_strlenB8ne180100EPKc, symObjAddr: 0x1480, symBinAddr: 0x100002C64, symSize: 0x24 }
  - { offset: 0x857E, size: 0x8, addend: 0x0, symName: __ZNKSt3__112basic_stringIcNS_11char_traitsIcEENS_9allocatorIcEEE4sizeB8ne180100Ev, symObjAddr: 0x14A4, symBinAddr: 0x100002C88, symSize: 0x54 }
  - { offset: 0x85AF, size: 0x8, addend: 0x0, symName: __ZNSt3__112__to_addressB8ne180100IcEEPT_S2_, symObjAddr: 0x1568, symBinAddr: 0x100002D4C, symSize: 0x14 }
  - { offset: 0x85B7, size: 0x8, addend: 0x0, symName: __ZNSt3__112basic_stringIcNS_11char_traitsIcEENS_9allocatorIcEEE13__get_pointerB8ne180100Ev, symObjAddr: 0x157C, symBinAddr: 0x100002D60, symSize: 0x54 }
  - { offset: 0x85F6, size: 0x8, addend: 0x0, symName: __ZNSt3__130__libcpp_is_constant_evaluatedB8ne180100Ev, symObjAddr: 0x1B40, symBinAddr: 0x100003324, symSize: 0xC }
  - { offset: 0x85FE, size: 0x8, addend: 0x0, symName: __ZNKSt3__117__compressed_pairINS_12basic_stringIcNS_11char_traitsIcEENS_9allocatorIcEEE5__repES5_E5firstB8ne180100Ev, symObjAddr: 0x1B4C, symBinAddr: 0x100003330, symSize: 0x24 }
  - { offset: 0x88ED, size: 0x8, addend: 0x0, symName: __ZNSt3__120__throw_length_errorB8ne180100EPKc, symObjAddr: 0x251C, symBinAddr: 0x100003D00, symSize: 0x68 }
  - { offset: 0x88F5, size: 0x8, addend: 0x0, symName: __ZNSt12length_errorC1B8ne180100EPKc, symObjAddr: 0x2584, symBinAddr: 0x100003D68, symSize: 0x34 }
  - { offset: 0x891F, size: 0x8, addend: 0x0, symName: __ZNSt3__117__libcpp_allocateB8ne180100Emm, symObjAddr: 0x272C, symBinAddr: 0x100003F10, symSize: 0x28 }
  - { offset: 0x8927, size: 0x8, addend: 0x0, symName: __ZNSt3__121__libcpp_operator_newB8ne180100IJmEEEPvDpT_, symObjAddr: 0x2754, symBinAddr: 0x100003F38, symSize: 0x24 }
  - { offset: 0x896D, size: 0x8, addend: 0x0, symName: __ZNSt3__121__libcpp_operator_newB8ne180100IJmEEEPvDpT_, symObjAddr: 0x2754, symBinAddr: 0x100003F38, symSize: 0x24 }
  - { offset: 0x8975, size: 0x8, addend: 0x0, symName: __ZNSt3__117__compressed_pairINS_12basic_stringIcNS_11char_traitsIcEENS_9allocatorIcEEE5__repES5_E6secondB8ne180100Ev, symObjAddr: 0x2778, symBinAddr: 0x100003F5C, symSize: 0x24 }
  - { offset: 0x89FC, size: 0x8, addend: 0x0, symName: __ZNSt3__14copyB8ne180100IPKcPcEET0_T_S5_S4_, symObjAddr: 0x289C, symBinAddr: 0x100004080, symSize: 0x24C }
  - { offset: 0x8A04, size: 0x8, addend: 0x0, symName: __ZNSt3__16__copyB8ne180100INS_17_ClassicAlgPolicyEPKcS3_PcEENS_4pairIT0_T2_EES6_T1_S7_, symObjAddr: 0x2AE8, symBinAddr: 0x1000042CC, symSize: 0x224 }
  - { offset: 0x8A76, size: 0x8, addend: 0x0, symName: __ZNSt3__16__copyB8ne180100INS_17_ClassicAlgPolicyEPKcS3_PcEENS_4pairIT0_T2_EES6_T1_S7_, symObjAddr: 0x2AE8, symBinAddr: 0x1000042CC, symSize: 0x224 }
  - { offset: 0x8A7E, size: 0x8, addend: 0x0, symName: __ZNSt3__123__dispatch_copy_or_moveB8ne180100INS_17_ClassicAlgPolicyENS_11__copy_loopIS1_EENS_14__copy_trivialEPKcS6_PcEENS_4pairIT2_T4_EES9_T3_SA_, symObjAddr: 0x2D0C, symBinAddr: 0x1000044F0, symSize: 0x224 }
  - { offset: 0x8B0A, size: 0x8, addend: 0x0, symName: __ZNSt3__123__dispatch_copy_or_moveB8ne180100INS_17_ClassicAlgPolicyENS_11__copy_loopIS1_EENS_14__copy_trivialEPKcS6_PcEENS_4pairIT2_T4_EES9_T3_SA_, symObjAddr: 0x2D0C, symBinAddr: 0x1000044F0, symSize: 0x224 }
  - { offset: 0x8B12, size: 0x8, addend: 0x0, symName: __ZNSt3__121__unwrap_and_dispatchB8ne180100INS_10__overloadINS_11__copy_loopINS_17_ClassicAlgPolicyEEENS_14__copy_trivialEEEPKcS8_PcLi0EEENS_4pairIT0_T2_EESB_T1_SC_, symObjAddr: 0x2F30, symBinAddr: 0x100004714, symSize: 0x59C }
  - { offset: 0x8BB8, size: 0x8, addend: 0x0, symName: __ZNSt3__121__unwrap_and_dispatchB8ne180100INS_10__overloadINS_11__copy_loopINS_17_ClassicAlgPolicyEEENS_14__copy_trivialEEEPKcS8_PcLi0EEENS_4pairIT0_T2_EESB_T1_SC_, symObjAddr: 0x2F30, symBinAddr: 0x100004714, symSize: 0x59C }
  - { offset: 0x8BC0, size: 0x8, addend: 0x0, symName: __ZNSt3__114__unwrap_rangeB8ne180100IPKcS2_EENS_4pairIT0_S4_EET_S6_, symObjAddr: 0x34CC, symBinAddr: 0x100004CB0, symSize: 0x340 }
  - { offset: 0x8C82, size: 0x8, addend: 0x0, symName: __ZNSt3__114__unwrap_rangeB8ne180100IPKcS2_EENS_4pairIT0_S4_EET_S6_, symObjAddr: 0x34CC, symBinAddr: 0x100004CB0, symSize: 0x340 }
  - { offset: 0x8C8A, size: 0x8, addend: 0x0, symName: __ZNKSt3__114__copy_trivialclB8ne180100IKccLi0EEENS_4pairIPT_PT0_EES5_S5_S7_, symObjAddr: 0x380C, symBinAddr: 0x100004FF0, symSize: 0x228 }
  - { offset: 0x8E59, size: 0x8, addend: 0x0, symName: __ZNSt3__113__unwrap_iterB8ne180100IPcNS_18__unwrap_iter_implIS1_Lb1EEELi0EEEDTclsrT0_8__unwrapclsr3stdE7declvalIT_EEEES5_, symObjAddr: 0x3A34, symBinAddr: 0x100005218, symSize: 0x24 }
  - { offset: 0x8E61, size: 0x8, addend: 0x0, symName: __ZNSt3__19make_pairB8ne180100IPKcPcEENS_4pairINS_18__unwrap_ref_decayIT_E4typeENS5_IT0_E4typeEEEOS6_OS9_, symObjAddr: 0x3A58, symBinAddr: 0x10000523C, symSize: 0x204 }
  - { offset: 0x8EB6, size: 0x8, addend: 0x0, symName: __ZNSt3__19make_pairB8ne180100IPKcPcEENS_4pairINS_18__unwrap_ref_decayIT_E4typeENS5_IT0_E4typeEEEOS6_OS9_, symObjAddr: 0x3A58, symBinAddr: 0x10000523C, symSize: 0x204 }
  - { offset: 0x8EBE, size: 0x8, addend: 0x0, symName: __ZNSt3__114__rewrap_rangeB8ne180100IPKcS2_EET_S3_T0_, symObjAddr: 0x3C5C, symBinAddr: 0x100005440, symSize: 0x2C }
  - { offset: 0x8F20, size: 0x8, addend: 0x0, symName: __ZNSt3__114__rewrap_rangeB8ne180100IPKcS2_EET_S3_T0_, symObjAddr: 0x3C5C, symBinAddr: 0x100005440, symSize: 0x2C }
  - { offset: 0x8F28, size: 0x8, addend: 0x0, symName: __ZNSt3__113__rewrap_iterB8ne180100IPcS1_NS_18__unwrap_iter_implIS1_Lb1EEEEET_S4_T0_, symObjAddr: 0x3C88, symBinAddr: 0x10000546C, symSize: 0x5C }
  - { offset: 0x8F85, size: 0x8, addend: 0x0, symName: __ZNSt3__113__rewrap_iterB8ne180100IPcS1_NS_18__unwrap_iter_implIS1_Lb1EEEEET_S4_T0_, symObjAddr: 0x3C88, symBinAddr: 0x10000546C, symSize: 0x5C }
  - { offset: 0x8F8D, size: 0x8, addend: 0x0, symName: __ZNSt3__19make_pairB8ne180100IPKcS2_EENS_4pairINS_18__unwrap_ref_decayIT_E4typeENS4_IT0_E4typeEEEOS5_OS8_, symObjAddr: 0x3CE4, symBinAddr: 0x1000054C8, symSize: 0x204 }
  - { offset: 0x8FF7, size: 0x8, addend: 0x0, symName: __ZNSt3__19make_pairB8ne180100IPKcS2_EENS_4pairINS_18__unwrap_ref_decayIT_E4typeENS4_IT0_E4typeEEEOS5_OS8_, symObjAddr: 0x3CE4, symBinAddr: 0x1000054C8, symSize: 0x204 }
  - { offset: 0x8FFF, size: 0x8, addend: 0x0, symName: __ZNSt3__113__unwrap_iterB8ne180100IPKcNS_18__unwrap_iter_implIS2_Lb1EEELi0EEEDTclsrT0_8__unwrapclsr3stdE7declvalIT_EEEES6_, symObjAddr: 0x3EE8, symBinAddr: 0x1000056CC, symSize: 0x24 }
  - { offset: 0x9061, size: 0x8, addend: 0x0, symName: __ZNSt3__113__unwrap_iterB8ne180100IPKcNS_18__unwrap_iter_implIS2_Lb1EEELi0EEEDTclsrT0_8__unwrapclsr3stdE7declvalIT_EEEES6_, symObjAddr: 0x3EE8, symBinAddr: 0x1000056CC, symSize: 0x24 }
  - { offset: 0x9069, size: 0x8, addend: 0x0, symName: __ZNSt3__14pairIPKcS2_EC1B8ne180100ERKS2_S5_, symObjAddr: 0x3F0C, symBinAddr: 0x1000056F0, symSize: 0x3C }
  - { offset: 0x923D, size: 0x8, addend: 0x0, symName: __ZNSt3__112__to_addressB8ne180100IKcEEPT_S3_, symObjAddr: 0x40A4, symBinAddr: 0x100005888, symSize: 0x14 }
  - { offset: 0x9245, size: 0x8, addend: 0x0, symName: __ZNSt3__119__copy_trivial_implB8ne180100IKccEENS_4pairIPT_PT0_EES4_S4_S6_, symObjAddr: 0x40B8, symBinAddr: 0x10000589C, symSize: 0x39C }
  - { offset: 0x9284, size: 0x8, addend: 0x0, symName: __ZNSt3__119__copy_trivial_implB8ne180100IKccEENS_4pairIPT_PT0_EES4_S4_S6_, symObjAddr: 0x40B8, symBinAddr: 0x10000589C, symSize: 0x39C }
  - { offset: 0x928C, size: 0x8, addend: 0x0, symName: __ZNSt3__119__constexpr_memmoveB8ne180100IcKcLi0EEEPT_S3_PT0_NS_15__element_countE, symObjAddr: 0x4454, symBinAddr: 0x100005C38, symSize: 0xB0 }
  - { offset: 0x9314, size: 0x8, addend: 0x0, symName: __ZNSt3__119__constexpr_memmoveB8ne180100IcKcLi0EEEPT_S3_PT0_NS_15__element_countE, symObjAddr: 0x4454, symBinAddr: 0x100005C38, symSize: 0xB0 }
  - { offset: 0x931C, size: 0x8, addend: 0x0, symName: __ZNSt3__19make_pairB8ne180100IRPKcPcEENS_4pairINS_18__unwrap_ref_decayIT_E4typeENS6_IT0_E4typeEEEOS7_OSA_, symObjAddr: 0x4504, symBinAddr: 0x100005CE8, symSize: 0x204 }
  - { offset: 0x93A7, size: 0x8, addend: 0x0, symName: __ZNSt3__19make_pairB8ne180100IRPKcPcEENS_4pairINS_18__unwrap_ref_decayIT_E4typeENS6_IT0_E4typeEEEOS7_OSA_, symObjAddr: 0x4504, symBinAddr: 0x100005CE8, symSize: 0x204 }
  - { offset: 0x93AF, size: 0x8, addend: 0x0, symName: __ZNSt3__14pairIPKcPcEC1B8ne180100ERKS2_RKS3_, symObjAddr: 0x4708, symBinAddr: 0x100005EEC, symSize: 0x3C }
  - { offset: 0x9489, size: 0x8, addend: 0x0, symName: __ZNSt3__113__rewrap_iterB8ne180100IPKcS2_NS_18__unwrap_iter_implIS2_Lb1EEEEET_S5_T0_, symObjAddr: 0x48A0, symBinAddr: 0x100006084, symSize: 0x5C }
  - { offset: 0x9491, size: 0x8, addend: 0x0, symName: __ZNSt3__118__unwrap_iter_implIPKcLb1EE8__rewrapB8ne180100ES2_S2_, symObjAddr: 0x48FC, symBinAddr: 0x1000060E0, symSize: 0x48 }
  - { offset: 0x9540, size: 0x8, addend: 0x0, symName: __ZNSt3__16fill_nB8ne180100IPcmcEET_S2_T0_RKT1_, symObjAddr: 0x4A88, symBinAddr: 0x10000626C, symSize: 0x44 }
  - { offset: 0x9548, size: 0x8, addend: 0x0, symName: __ZNSt3__18__fill_nB8ne180100IPcmcEET_S2_T0_RKT1_, symObjAddr: 0x4ACC, symBinAddr: 0x1000062B0, symSize: 0x138 }
  - { offset: 0x95C4, size: 0x8, addend: 0x0, symName: __ZNSt3__18__fill_nB8ne180100IPcmcEET_S2_T0_RKT1_, symObjAddr: 0x4ACC, symBinAddr: 0x1000062B0, symSize: 0x138 }
  - { offset: 0x95CC, size: 0x8, addend: 0x0, symName: __ZNSt3__121__convert_to_integralB8ne180100Em, symObjAddr: 0x4C04, symBinAddr: 0x1000063E8, symSize: 0x14 }
  - { offset: 0x9648, size: 0x8, addend: 0x0, symName: __ZNSt3__121__convert_to_integralB8ne180100Em, symObjAddr: 0x4C04, symBinAddr: 0x1000063E8, symSize: 0x14 }
  - { offset: 0x9650, size: 0x8, addend: 0x0, symName: __ZNSt3__124__put_character_sequenceB8ne180100IcNS_11char_traitsIcEEEERNS_13basic_ostreamIT_T0_EES7_PKS4_m, symObjAddr: 0x4C18, symBinAddr: 0x1000063FC, symSize: 0x840 }
  - { offset: 0x9682, size: 0x8, addend: 0x0, symName: __ZNSt3__116__pad_and_outputB8ne180100IcNS_11char_traitsIcEEEENS_19ostreambuf_iteratorIT_T0_EES6_PKS4_S8_S8_RNS_8ios_baseES4_, symObjAddr: 0x54E0, symBinAddr: 0x100006CC4, symSize: 0x808 }
  - { offset: 0x968A, size: 0x8, addend: 0x0, symName: __ZNSt3__119ostreambuf_iteratorIcNS_11char_traitsIcEEEC1B8ne180100ERNS_13basic_ostreamIcS2_EE, symObjAddr: 0x5CE8, symBinAddr: 0x1000074CC, symSize: 0x34 }
  - { offset: 0x9798, size: 0x8, addend: 0x0, symName: __ZNSt3__19use_facetB8ne180100INS_5ctypeIcEEEERKT_RKNS_6localeE, symObjAddr: 0x68C4, symBinAddr: 0x1000080A8, symSize: 0x2C }
  - { offset: 0x97A0, size: 0x8, addend: 0x0, symName: __ZNKSt3__15ctypeIcE5widenB8ne180100Ec, symObjAddr: 0x68F0, symBinAddr: 0x1000080D4, symSize: 0xBC }
  - { offset: 0xD63F, size: 0x8, addend: 0x0, symName: __ZSt28__throw_bad_array_new_lengthB8ne180100v, symObjAddr: 0x26F4, symBinAddr: 0x100003ED8, symSize: 0x38 }
  - { offset: 0xD647, size: 0x8, addend: 0x0, symName: __ZNSt3__117__libcpp_allocateB8ne180100Emm, symObjAddr: 0x272C, symBinAddr: 0x100003F10, symSize: 0x28 }
  - { offset: 0xE082, size: 0x8, addend: 0x0, symName: _main, symObjAddr: 0x0, symBinAddr: 0x1000017E4, symSize: 0xC74 }
  - { offset: 0xE08A, size: 0x8, addend: 0x0, symName: __ZNSt3__1lsB8ne180100IcNS_11char_traitsIcEENS_9allocatorIcEEEERNS_13basic_ostreamIT_T0_EES9_RKNS_12basic_stringIS6_S7_T1_EE, symObjAddr: 0xC74, symBinAddr: 0x100002458, symSize: 0x4C }
  - { offset: 0xE14B, size: 0x8, addend: 0x0, symName: __ZNSt3__112basic_stringIcNS_11char_traitsIcEENS_9allocatorIcEEEC1B8ne180100ILi0EEEPKc, symObjAddr: 0xFA0, symBinAddr: 0x100002784, symSize: 0x34 }
  - { offset: 0xE153, size: 0x8, addend: 0x0, symName: __ZNSt3__113basic_ostreamIcNS_11char_traitsIcEEElsB8ne180100EPFRS3_S4_E, symObjAddr: 0xFD4, symBinAddr: 0x1000027B8, symSize: 0x2C }
  - { offset: 0xE19D, size: 0x8, addend: 0x0, symName: __ZNSt3__113basic_ostreamIcNS_11char_traitsIcEEElsB8ne180100EPFRS3_S4_E, symObjAddr: 0xFD4, symBinAddr: 0x1000027B8, symSize: 0x2C }
  - { offset: 0xE1A5, size: 0x8, addend: 0x0, symName: __ZNSt3__14endlB8ne180100IcNS_11char_traitsIcEEEERNS_13basic_ostreamIT_T0_EES7_, symObjAddr: 0x1000, symBinAddr: 0x1000027E4, symSize: 0xD4 }
  - { offset: 0xE1E0, size: 0x8, addend: 0x0, symName: __ZNSt3__112basic_stringIcNS_11char_traitsIcEENS_9allocatorIcEEEC2B8ne180100ILi0EEEPKc, symObjAddr: 0x112C, symBinAddr: 0x100002910, symSize: 0x208 }
  - { offset: 0xE1E8, size: 0x8, addend: 0x0, symName: __ZNSt3__117__compressed_pairINS_12basic_stringIcNS_11char_traitsIcEENS_9allocatorIcEEE5__repES5_EC1B8ne180100INS_18__default_init_tagESA_EEOT_OT0_, symObjAddr: 0x1334, symBinAddr: 0x100002B18, symSize: 0x3C }
  - { offset: 0xE23D, size: 0x8, addend: 0x0, symName: __ZNSt3__117__compressed_pairINS_12basic_stringIcNS_11char_traitsIcEENS_9allocatorIcEEE5__repES5_EC1B8ne180100INS_18__default_init_tagESA_EEOT_OT0_, symObjAddr: 0x1334, symBinAddr: 0x100002B18, symSize: 0x3C }
  - { offset: 0xE245, size: 0x8, addend: 0x0, symName: __ZNSt3__111char_traitsIcE6lengthB8ne180100EPKc, symObjAddr: 0x1370, symBinAddr: 0x100002B54, symSize: 0x54 }
  - { offset: 0xE2B0, size: 0x8, addend: 0x0, symName: __ZNSt3__111char_traitsIcE6lengthB8ne180100EPKc, symObjAddr: 0x1370, symBinAddr: 0x100002B54, symSize: 0x54 }
  - { offset: 0xE2B8, size: 0x8, addend: 0x0, symName: __ZNSt3__117__compressed_pairINS_12basic_stringIcNS_11char_traitsIcEENS_9allocatorIcEEE5__repES5_EC2B8ne180100INS_18__default_init_tagESA_EEOT_OT0_, symObjAddr: 0x13C4, symBinAddr: 0x100002BA8, symSize: 0x3C }
  - { offset: 0xE2DE, size: 0x8, addend: 0x0, symName: __ZNSt3__117__compressed_pairINS_12basic_stringIcNS_11char_traitsIcEENS_9allocatorIcEEE5__repES5_EC2B8ne180100INS_18__default_init_tagESA_EEOT_OT0_, symObjAddr: 0x13C4, symBinAddr: 0x100002BA8, symSize: 0x3C }
  - { offset: 0xE2E6, size: 0x8, addend: 0x0, symName: __ZNSt3__122__compressed_pair_elemINS_12basic_stringIcNS_11char_traitsIcEENS_9allocatorIcEEE5__repELi0ELb0EEC2B8ne180100ENS_18__default_init_tagE, symObjAddr: 0x1400, symBinAddr: 0x100002BE4, symSize: 0x14 }
  - { offset: 0xE351, size: 0x8, addend: 0x0, symName: __ZNSt3__122__compressed_pair_elemINS_12basic_stringIcNS_11char_traitsIcEENS_9allocatorIcEEE5__repELi0ELb0EEC2B8ne180100ENS_18__default_init_tagE, symObjAddr: 0x1400, symBinAddr: 0x100002BE4, symSize: 0x14 }
  - { offset: 0xE359, size: 0x8, addend: 0x0, symName: __ZNSt3__122__compressed_pair_elemINS_9allocatorIcEELi1ELb1EEC2B8ne180100ENS_18__default_init_tagE, symObjAddr: 0x1414, symBinAddr: 0x100002BF8, symSize: 0x2C }
  - { offset: 0xE395, size: 0x8, addend: 0x0, symName: __ZNSt3__122__compressed_pair_elemINS_9allocatorIcEELi1ELb1EEC2B8ne180100ENS_18__default_init_tagE, symObjAddr: 0x1414, symBinAddr: 0x100002BF8, symSize: 0x2C }
  - { offset: 0xE39D, size: 0x8, addend: 0x0, symName: __ZNSt3__19allocatorIcEC2B8ne180100Ev, symObjAddr: 0x1440, symBinAddr: 0x100002C24, symSize: 0x2C }
  - { offset: 0xE3D8, size: 0x8, addend: 0x0, symName: __ZNSt3__19allocatorIcEC2B8ne180100Ev, symObjAddr: 0x1440, symBinAddr: 0x100002C24, symSize: 0x2C }
  - { offset: 0xE3E0, size: 0x8, addend: 0x0, symName: __ZNSt3__116__non_trivial_ifILb1ENS_9allocatorIcEEEC2B8ne180100Ev, symObjAddr: 0x146C, symBinAddr: 0x100002C50, symSize: 0x14 }
  - { offset: 0xE40D, size: 0x8, addend: 0x0, symName: __ZNSt3__116__non_trivial_ifILb1ENS_9allocatorIcEEEC2B8ne180100Ev, symObjAddr: 0x146C, symBinAddr: 0x100002C50, symSize: 0x14 }
  - { offset: 0xE415, size: 0x8, addend: 0x0, symName: __ZNSt3__118__constexpr_strlenB8ne180100EPKc, symObjAddr: 0x1480, symBinAddr: 0x100002C64, symSize: 0x24 }
  - { offset: 0xE443, size: 0x8, addend: 0x0, symName: __ZNKSt3__112basic_stringIcNS_11char_traitsIcEENS_9allocatorIcEEE4sizeB8ne180100Ev, symObjAddr: 0x14A4, symBinAddr: 0x100002C88, symSize: 0x54 }
  - { offset: 0xE44B, size: 0x8, addend: 0x0, symName: __ZNSt3__116allocator_traitsINS_9allocatorIcEEE37select_on_container_copy_constructionB8ne180100IS2_vvEES2_RKS2_, symObjAddr: 0x14F8, symBinAddr: 0x100002CDC, symSize: 0x10 }
  - { offset: 0xE486, size: 0x8, addend: 0x0, symName: __ZNSt3__116allocator_traitsINS_9allocatorIcEEE37select_on_container_copy_constructionB8ne180100IS2_vvEES2_RKS2_, symObjAddr: 0x14F8, symBinAddr: 0x100002CDC, symSize: 0x10 }
  - { offset: 0xE48E, size: 0x8, addend: 0x0, symName: __ZNKSt3__112basic_stringIcNS_11char_traitsIcEENS_9allocatorIcEEE13get_allocatorB8ne180100Ev, symObjAddr: 0x1508, symBinAddr: 0x100002CEC, symSize: 0x24 }
  - { offset: 0xE4C5, size: 0x8, addend: 0x0, symName: __ZNKSt3__112basic_stringIcNS_11char_traitsIcEENS_9allocatorIcEEE13get_allocatorB8ne180100Ev, symObjAddr: 0x1508, symBinAddr: 0x100002CEC, symSize: 0x24 }
  - { offset: 0xE4CD, size: 0x8, addend: 0x0, symName: __ZNSt3__112basic_stringIcNS_11char_traitsIcEENS_9allocatorIcEEEC1B8ne180100ENS_24__uninitialized_size_tagEmRKS4_, symObjAddr: 0x152C, symBinAddr: 0x100002D10, symSize: 0x3C }
  - { offset: 0xE4F6, size: 0x8, addend: 0x0, symName: __ZNSt3__112basic_stringIcNS_11char_traitsIcEENS_9allocatorIcEEEC1B8ne180100ENS_24__uninitialized_size_tagEmRKS4_, symObjAddr: 0x152C, symBinAddr: 0x100002D10, symSize: 0x3C }
  - { offset: 0xE4FE, size: 0x8, addend: 0x0, symName: __ZNSt3__112__to_addressB8ne180100IcEEPT_S2_, symObjAddr: 0x1568, symBinAddr: 0x100002D4C, symSize: 0x14 }
  - { offset: 0xE560, size: 0x8, addend: 0x0, symName: __ZNSt3__112basic_stringIcNS_11char_traitsIcEENS_9allocatorIcEEE13__get_pointerB8ne180100Ev, symObjAddr: 0x157C, symBinAddr: 0x100002D60, symSize: 0x54 }
  - { offset: 0xE568, size: 0x8, addend: 0x0, symName: __ZNSt3__111char_traitsIcE4copyB8ne180100EPcPKcm, symObjAddr: 0x15D0, symBinAddr: 0x100002DB4, symSize: 0x60 }
  - { offset: 0xE591, size: 0x8, addend: 0x0, symName: __ZNSt3__111char_traitsIcE4copyB8ne180100EPcPKcm, symObjAddr: 0x15D0, symBinAddr: 0x100002DB4, symSize: 0x60 }
  - { offset: 0xE599, size: 0x8, addend: 0x0, symName: __ZNKSt3__112basic_stringIcNS_11char_traitsIcEENS_9allocatorIcEEE4dataB8ne180100Ev, symObjAddr: 0x1630, symBinAddr: 0x100002E14, symSize: 0x28 }
  - { offset: 0xE5E3, size: 0x8, addend: 0x0, symName: __ZNKSt3__112basic_stringIcNS_11char_traitsIcEENS_9allocatorIcEEE4dataB8ne180100Ev, symObjAddr: 0x1630, symBinAddr: 0x100002E14, symSize: 0x28 }
  - { offset: 0xE5EB, size: 0x8, addend: 0x0, symName: __ZNSt3__111char_traitsIcE6assignB8ne180100EPcmc, symObjAddr: 0x1658, symBinAddr: 0x100002E3C, symSize: 0x2A0 }
  - { offset: 0xE614, size: 0x8, addend: 0x0, symName: __ZNSt3__111char_traitsIcE6assignB8ne180100EPcmc, symObjAddr: 0x1658, symBinAddr: 0x100002E3C, symSize: 0x2A0 }
  - { offset: 0xE61C, size: 0x8, addend: 0x0, symName: __ZNKSt3__112basic_stringIcNS_11char_traitsIcEENS_9allocatorIcEEE9__is_longB8ne180100Ev, symObjAddr: 0x18F8, symBinAddr: 0x1000030DC, symSize: 0x138 }
  - { offset: 0xE66C, size: 0x8, addend: 0x0, symName: __ZNKSt3__112basic_stringIcNS_11char_traitsIcEENS_9allocatorIcEEE9__is_longB8ne180100Ev, symObjAddr: 0x18F8, symBinAddr: 0x1000030DC, symSize: 0x138 }
  - { offset: 0xE674, size: 0x8, addend: 0x0, symName: __ZNKSt3__112basic_stringIcNS_11char_traitsIcEENS_9allocatorIcEEE15__get_long_sizeB8ne180100Ev, symObjAddr: 0x1A30, symBinAddr: 0x100003214, symSize: 0x70 }
  - { offset: 0xE69D, size: 0x8, addend: 0x0, symName: __ZNKSt3__112basic_stringIcNS_11char_traitsIcEENS_9allocatorIcEEE15__get_long_sizeB8ne180100Ev, symObjAddr: 0x1A30, symBinAddr: 0x100003214, symSize: 0x70 }
  - { offset: 0xE6A5, size: 0x8, addend: 0x0, symName: __ZNKSt3__112basic_stringIcNS_11char_traitsIcEENS_9allocatorIcEEE16__get_short_sizeB8ne180100Ev, symObjAddr: 0x1AA0, symBinAddr: 0x100003284, symSize: 0xA0 }
  - { offset: 0xE6CE, size: 0x8, addend: 0x0, symName: __ZNKSt3__112basic_stringIcNS_11char_traitsIcEENS_9allocatorIcEEE16__get_short_sizeB8ne180100Ev, symObjAddr: 0x1AA0, symBinAddr: 0x100003284, symSize: 0xA0 }
  - { offset: 0xE6D6, size: 0x8, addend: 0x0, symName: __ZNSt3__130__libcpp_is_constant_evaluatedB8ne180100Ev, symObjAddr: 0x1B40, symBinAddr: 0x100003324, symSize: 0xC }
  - { offset: 0xE6FF, size: 0x8, addend: 0x0, symName: __ZNKSt3__117__compressed_pairINS_12basic_stringIcNS_11char_traitsIcEENS_9allocatorIcEEE5__repES5_E5firstB8ne180100Ev, symObjAddr: 0x1B4C, symBinAddr: 0x100003330, symSize: 0x24 }
  - { offset: 0xE707, size: 0x8, addend: 0x0, symName: __ZNKSt3__122__compressed_pair_elemINS_12basic_stringIcNS_11char_traitsIcEENS_9allocatorIcEEE5__repELi0ELb0EE5__getB8ne180100Ev, symObjAddr: 0x1B70, symBinAddr: 0x100003354, symSize: 0x14 }
  - { offset: 0xE730, size: 0x8, addend: 0x0, symName: __ZNKSt3__122__compressed_pair_elemINS_12basic_stringIcNS_11char_traitsIcEENS_9allocatorIcEEE5__repELi0ELb0EE5__getB8ne180100Ev, symObjAddr: 0x1B70, symBinAddr: 0x100003354, symSize: 0x14 }
  - { offset: 0xE738, size: 0x8, addend: 0x0, symName: __ZNKSt3__112basic_stringIcNS_11char_traitsIcEENS_9allocatorIcEEE7__allocB8ne180100Ev, symObjAddr: 0x1B84, symBinAddr: 0x100003368, symSize: 0x24 }
  - { offset: 0xE762, size: 0x8, addend: 0x0, symName: __ZNKSt3__112basic_stringIcNS_11char_traitsIcEENS_9allocatorIcEEE7__allocB8ne180100Ev, symObjAddr: 0x1B84, symBinAddr: 0x100003368, symSize: 0x24 }
  - { offset: 0xE76A, size: 0x8, addend: 0x0, symName: __ZNKSt3__117__compressed_pairINS_12basic_stringIcNS_11char_traitsIcEENS_9allocatorIcEEE5__repES5_E6secondB8ne180100Ev, symObjAddr: 0x1BA8, symBinAddr: 0x10000338C, symSize: 0x24 }
  - { offset: 0xE793, size: 0x8, addend: 0x0, symName: __ZNKSt3__117__compressed_pairINS_12basic_stringIcNS_11char_traitsIcEENS_9allocatorIcEEE5__repES5_E6secondB8ne180100Ev, symObjAddr: 0x1BA8, symBinAddr: 0x10000338C, symSize: 0x24 }
  - { offset: 0xE79B, size: 0x8, addend: 0x0, symName: __ZNKSt3__122__compressed_pair_elemINS_9allocatorIcEELi1ELb1EE5__getB8ne180100Ev, symObjAddr: 0x1BCC, symBinAddr: 0x1000033B0, symSize: 0x14 }
  - { offset: 0xE7C4, size: 0x8, addend: 0x0, symName: __ZNKSt3__122__compressed_pair_elemINS_9allocatorIcEELi1ELb1EE5__getB8ne180100Ev, symObjAddr: 0x1BCC, symBinAddr: 0x1000033B0, symSize: 0x14 }
  - { offset: 0xE7CC, size: 0x8, addend: 0x0, symName: __ZNSt3__112basic_stringIcNS_11char_traitsIcEENS_9allocatorIcEEEC2B8ne180100ENS_24__uninitialized_size_tagEmRKS4_, symObjAddr: 0x1BE0, symBinAddr: 0x1000033C4, symSize: 0x320 }
  - { offset: 0xE7F6, size: 0x8, addend: 0x0, symName: __ZNSt3__112basic_stringIcNS_11char_traitsIcEENS_9allocatorIcEEEC2B8ne180100ENS_24__uninitialized_size_tagEmRKS4_, symObjAddr: 0x1BE0, symBinAddr: 0x1000033C4, symSize: 0x320 }
  - { offset: 0xE7FE, size: 0x8, addend: 0x0, symName: __ZNSt3__117__compressed_pairINS_12basic_stringIcNS_11char_traitsIcEENS_9allocatorIcEEE5__repES5_EC1B8ne180100INS_18__default_init_tagERKS5_EEOT_OT0_, symObjAddr: 0x1F00, symBinAddr: 0x1000036E4, symSize: 0x3C }
  - { offset: 0xE89E, size: 0x8, addend: 0x0, symName: __ZNSt3__117__compressed_pairINS_12basic_stringIcNS_11char_traitsIcEENS_9allocatorIcEEE5__repES5_EC1B8ne180100INS_18__default_init_tagERKS5_EEOT_OT0_, symObjAddr: 0x1F00, symBinAddr: 0x1000036E4, symSize: 0x3C }
  - { offset: 0xE8A6, size: 0x8, addend: 0x0, symName: __ZNKSt3__112basic_stringIcNS_11char_traitsIcEENS_9allocatorIcEEE8max_sizeB8ne180100Ev, symObjAddr: 0x1F3C, symBinAddr: 0x100003720, symSize: 0xBC }
  - { offset: 0xE911, size: 0x8, addend: 0x0, symName: __ZNKSt3__112basic_stringIcNS_11char_traitsIcEENS_9allocatorIcEEE8max_sizeB8ne180100Ev, symObjAddr: 0x1F3C, symBinAddr: 0x100003720, symSize: 0xBC }
  - { offset: 0xE919, size: 0x8, addend: 0x0, symName: __ZNKSt3__112basic_stringIcNS_11char_traitsIcEENS_9allocatorIcEEE20__throw_length_errorB8ne180100Ev, symObjAddr: 0x1FF8, symBinAddr: 0x1000037DC, symSize: 0x20 }
  - { offset: 0xE97A, size: 0x8, addend: 0x0, symName: __ZNKSt3__112basic_stringIcNS_11char_traitsIcEENS_9allocatorIcEEE20__throw_length_errorB8ne180100Ev, symObjAddr: 0x1FF8, symBinAddr: 0x1000037DC, symSize: 0x20 }
  - { offset: 0xE982, size: 0x8, addend: 0x0, symName: __ZNSt3__112basic_stringIcNS_11char_traitsIcEENS_9allocatorIcEEE13__fits_in_ssoB8ne180100Em, symObjAddr: 0x2018, symBinAddr: 0x1000037FC, symSize: 0x20 }
  - { offset: 0xE9AB, size: 0x8, addend: 0x0, symName: __ZNSt3__112basic_stringIcNS_11char_traitsIcEENS_9allocatorIcEEE13__fits_in_ssoB8ne180100Em, symObjAddr: 0x2018, symBinAddr: 0x1000037FC, symSize: 0x20 }
  - { offset: 0xE9B3, size: 0x8, addend: 0x0, symName: __ZNSt3__117__compressed_pairINS_12basic_stringIcNS_11char_traitsIcEENS_9allocatorIcEEE5__repES5_E5firstB8ne180100Ev, symObjAddr: 0x2038, symBinAddr: 0x10000381C, symSize: 0x24 }
  - { offset: 0xE9DB, size: 0x8, addend: 0x0, symName: __ZNSt3__117__compressed_pairINS_12basic_stringIcNS_11char_traitsIcEENS_9allocatorIcEEE5__repES5_E5firstB8ne180100Ev, symObjAddr: 0x2038, symBinAddr: 0x10000381C, symSize: 0x24 }
  - { offset: 0xE9E3, size: 0x8, addend: 0x0, symName: __ZNSt3__112basic_stringIcNS_11char_traitsIcEENS_9allocatorIcEEE16__set_short_sizeB8ne180100Em, symObjAddr: 0x205C, symBinAddr: 0x100003840, symSize: 0x130 }
  - { offset: 0xEA0C, size: 0x8, addend: 0x0, symName: __ZNSt3__112basic_stringIcNS_11char_traitsIcEENS_9allocatorIcEEE16__set_short_sizeB8ne180100Em, symObjAddr: 0x205C, symBinAddr: 0x100003840, symSize: 0x130 }
  - { offset: 0xEA14, size: 0x8, addend: 0x0, symName: __ZNSt3__112basic_stringIcNS_11char_traitsIcEENS_9allocatorIcEEE11__recommendB8ne180100Em, symObjAddr: 0x218C, symBinAddr: 0x100003970, symSize: 0x84 }
  - { offset: 0xEA50, size: 0x8, addend: 0x0, symName: __ZNSt3__112basic_stringIcNS_11char_traitsIcEENS_9allocatorIcEEE11__recommendB8ne180100Em, symObjAddr: 0x218C, symBinAddr: 0x100003970, symSize: 0x84 }
  - { offset: 0xEA58, size: 0x8, addend: 0x0, symName: __ZNSt3__116allocator_traitsINS_9allocatorIcEEE8allocateB8ne180100ERS2_m, symObjAddr: 0x2210, symBinAddr: 0x1000039F4, symSize: 0x2C }
  - { offset: 0xEA92, size: 0x8, addend: 0x0, symName: __ZNSt3__116allocator_traitsINS_9allocatorIcEEE8allocateB8ne180100ERS2_m, symObjAddr: 0x2210, symBinAddr: 0x1000039F4, symSize: 0x2C }
  - { offset: 0xEA9A, size: 0x8, addend: 0x0, symName: __ZNSt3__112basic_stringIcNS_11char_traitsIcEENS_9allocatorIcEEE7__allocB8ne180100Ev, symObjAddr: 0x223C, symBinAddr: 0x100003A20, symSize: 0x24 }
  - { offset: 0xEAD4, size: 0x8, addend: 0x0, symName: __ZNSt3__112basic_stringIcNS_11char_traitsIcEENS_9allocatorIcEEE7__allocB8ne180100Ev, symObjAddr: 0x223C, symBinAddr: 0x100003A20, symSize: 0x24 }
  - { offset: 0xEADC, size: 0x8, addend: 0x0, symName: __ZNSt3__112basic_stringIcNS_11char_traitsIcEENS_9allocatorIcEEE16__begin_lifetimeB8ne180100EPcm, symObjAddr: 0x2260, symBinAddr: 0x100003A44, symSize: 0x14 }
  - { offset: 0xEB05, size: 0x8, addend: 0x0, symName: __ZNSt3__112basic_stringIcNS_11char_traitsIcEENS_9allocatorIcEEE16__begin_lifetimeB8ne180100EPcm, symObjAddr: 0x2260, symBinAddr: 0x100003A44, symSize: 0x14 }
  - { offset: 0xEB0D, size: 0x8, addend: 0x0, symName: __ZNSt3__112basic_stringIcNS_11char_traitsIcEENS_9allocatorIcEEE14__set_long_capB8ne180100Em, symObjAddr: 0x2274, symBinAddr: 0x100003A58, symSize: 0xEC }
  - { offset: 0xEB48, size: 0x8, addend: 0x0, symName: __ZNSt3__112basic_stringIcNS_11char_traitsIcEENS_9allocatorIcEEE14__set_long_capB8ne180100Em, symObjAddr: 0x2274, symBinAddr: 0x100003A58, symSize: 0xEC }
  - { offset: 0xEB50, size: 0x8, addend: 0x0, symName: __ZNSt3__112basic_stringIcNS_11char_traitsIcEENS_9allocatorIcEEE18__set_long_pointerB8ne180100EPc, symObjAddr: 0x2360, symBinAddr: 0x100003B44, symSize: 0x7C }
  - { offset: 0xEB8C, size: 0x8, addend: 0x0, symName: __ZNSt3__112basic_stringIcNS_11char_traitsIcEENS_9allocatorIcEEE18__set_long_pointerB8ne180100EPc, symObjAddr: 0x2360, symBinAddr: 0x100003B44, symSize: 0x7C }
  - { offset: 0xEB94, size: 0x8, addend: 0x0, symName: __ZNSt3__112basic_stringIcNS_11char_traitsIcEENS_9allocatorIcEEE15__set_long_sizeB8ne180100Em, symObjAddr: 0x23DC, symBinAddr: 0x100003BC0, symSize: 0x80 }
  - { offset: 0xEBD0, size: 0x8, addend: 0x0, symName: __ZNSt3__112basic_stringIcNS_11char_traitsIcEENS_9allocatorIcEEE15__set_long_sizeB8ne180100Em, symObjAddr: 0x23DC, symBinAddr: 0x100003BC0, symSize: 0x80 }
  - { offset: 0xEBD8, size: 0x8, addend: 0x0, symName: __ZNKSt3__112basic_stringIcNS_11char_traitsIcEENS_9allocatorIcEEE14__annotate_newB8ne180100Em, symObjAddr: 0x245C, symBinAddr: 0x100003C40, symSize: 0x14 }
  - { offset: 0xEC14, size: 0x8, addend: 0x0, symName: __ZNKSt3__112basic_stringIcNS_11char_traitsIcEENS_9allocatorIcEEE14__annotate_newB8ne180100Em, symObjAddr: 0x245C, symBinAddr: 0x100003C40, symSize: 0x14 }
  - { offset: 0xEC1C, size: 0x8, addend: 0x0, symName: __ZNSt3__117__compressed_pairINS_12basic_stringIcNS_11char_traitsIcEENS_9allocatorIcEEE5__repES5_EC2B8ne180100INS_18__default_init_tagERKS5_EEOT_OT0_, symObjAddr: 0x2470, symBinAddr: 0x100003C54, symSize: 0x40 }
  - { offset: 0xEC59, size: 0x8, addend: 0x0, symName: __ZNSt3__117__compressed_pairINS_12basic_stringIcNS_11char_traitsIcEENS_9allocatorIcEEE5__repES5_EC2B8ne180100INS_18__default_init_tagERKS5_EEOT_OT0_, symObjAddr: 0x2470, symBinAddr: 0x100003C54, symSize: 0x40 }
  - { offset: 0xEC61, size: 0x8, addend: 0x0, symName: __ZNSt3__122__compressed_pair_elemINS_9allocatorIcEELi1ELb1EEC2B8ne180100IRKS2_vEEOT_, symObjAddr: 0x24B0, symBinAddr: 0x100003C94, symSize: 0x18 }
  - { offset: 0xECCC, size: 0x8, addend: 0x0, symName: __ZNSt3__122__compressed_pair_elemINS_9allocatorIcEELi1ELb1EEC2B8ne180100IRKS2_vEEOT_, symObjAddr: 0x24B0, symBinAddr: 0x100003C94, symSize: 0x18 }
  - { offset: 0xECD4, size: 0x8, addend: 0x0, symName: __ZNSt3__116allocator_traitsINS_9allocatorIcEEE8max_sizeB8ne180100IS2_vEEmRKS2_, symObjAddr: 0x24C8, symBinAddr: 0x100003CAC, symSize: 0x24 }
  - { offset: 0xED22, size: 0x8, addend: 0x0, symName: __ZNSt3__116allocator_traitsINS_9allocatorIcEEE8max_sizeB8ne180100IS2_vEEmRKS2_, symObjAddr: 0x24C8, symBinAddr: 0x100003CAC, symSize: 0x24 }
  - { offset: 0xED2A, size: 0x8, addend: 0x0, symName: __ZNSt3__114numeric_limitsImE3maxB8ne180100Ev, symObjAddr: 0x24EC, symBinAddr: 0x100003CD0, symSize: 0x14 }
  - { offset: 0xED5F, size: 0x8, addend: 0x0, symName: __ZNSt3__114numeric_limitsImE3maxB8ne180100Ev, symObjAddr: 0x24EC, symBinAddr: 0x100003CD0, symSize: 0x14 }
  - { offset: 0xED67, size: 0x8, addend: 0x0, symName: __ZNKSt3__19allocatorIcE8max_sizeB8ne180100Ev, symObjAddr: 0x2500, symBinAddr: 0x100003CE4, symSize: 0x14 }
  - { offset: 0xED7A, size: 0x8, addend: 0x0, symName: __ZNKSt3__19allocatorIcE8max_sizeB8ne180100Ev, symObjAddr: 0x2500, symBinAddr: 0x100003CE4, symSize: 0x14 }
  - { offset: 0xED82, size: 0x8, addend: 0x0, symName: __ZNSt3__123__libcpp_numeric_limitsImLb1EE3maxB8ne180100Ev, symObjAddr: 0x2514, symBinAddr: 0x100003CF8, symSize: 0x8 }
  - { offset: 0xEDAC, size: 0x8, addend: 0x0, symName: __ZNSt3__123__libcpp_numeric_limitsImLb1EE3maxB8ne180100Ev, symObjAddr: 0x2514, symBinAddr: 0x100003CF8, symSize: 0x8 }
  - { offset: 0xEDB4, size: 0x8, addend: 0x0, symName: __ZNSt3__120__throw_length_errorB8ne180100EPKc, symObjAddr: 0x251C, symBinAddr: 0x100003D00, symSize: 0x68 }
  - { offset: 0xEDC8, size: 0x8, addend: 0x0, symName: __ZNSt12length_errorC1B8ne180100EPKc, symObjAddr: 0x2584, symBinAddr: 0x100003D68, symSize: 0x34 }
  - { offset: 0xEDD0, size: 0x8, addend: 0x0, symName: __ZNSt12length_errorC2B8ne180100EPKc, symObjAddr: 0x25B8, symBinAddr: 0x100003D9C, symSize: 0x84 }
  - { offset: 0xEE0F, size: 0x8, addend: 0x0, symName: __ZNSt12length_errorC2B8ne180100EPKc, symObjAddr: 0x25B8, symBinAddr: 0x100003D9C, symSize: 0x84 }
  - { offset: 0xEE17, size: 0x8, addend: 0x0, symName: __ZNSt3__122__compressed_pair_elemINS_12basic_stringIcNS_11char_traitsIcEENS_9allocatorIcEEE5__repELi0ELb0EE5__getB8ne180100Ev, symObjAddr: 0x263C, symBinAddr: 0x100003E20, symSize: 0x14 }
  - { offset: 0xEE56, size: 0x8, addend: 0x0, symName: __ZNSt3__122__compressed_pair_elemINS_12basic_stringIcNS_11char_traitsIcEENS_9allocatorIcEEE5__repELi0ELb0EE5__getB8ne180100Ev, symObjAddr: 0x263C, symBinAddr: 0x100003E20, symSize: 0x14 }
  - { offset: 0xEE5E, size: 0x8, addend: 0x0, symName: __ZNSt3__112basic_stringIcNS_11char_traitsIcEENS_9allocatorIcEEE10__align_itB8ne180100ILm8EEEmm, symObjAddr: 0x2650, symBinAddr: 0x100003E34, symSize: 0x1C }
  - { offset: 0xEE88, size: 0x8, addend: 0x0, symName: __ZNSt3__112basic_stringIcNS_11char_traitsIcEENS_9allocatorIcEEE10__align_itB8ne180100ILm8EEEmm, symObjAddr: 0x2650, symBinAddr: 0x100003E34, symSize: 0x1C }
  - { offset: 0xEE90, size: 0x8, addend: 0x0, symName: __ZNSt3__19allocatorIcE8allocateB8ne180100Em, symObjAddr: 0x266C, symBinAddr: 0x100003E50, symSize: 0x88 }
  - { offset: 0xEEC6, size: 0x8, addend: 0x0, symName: __ZNSt3__19allocatorIcE8allocateB8ne180100Em, symObjAddr: 0x266C, symBinAddr: 0x100003E50, symSize: 0x88 }
  - { offset: 0xEECE, size: 0x8, addend: 0x0, symName: __ZSt28__throw_bad_array_new_lengthB8ne180100v, symObjAddr: 0x26F4, symBinAddr: 0x100003ED8, symSize: 0x38 }
  - { offset: 0xEF09, size: 0x8, addend: 0x0, symName: __ZNSt3__117__compressed_pairINS_12basic_stringIcNS_11char_traitsIcEENS_9allocatorIcEEE5__repES5_E6secondB8ne180100Ev, symObjAddr: 0x2778, symBinAddr: 0x100003F5C, symSize: 0x24 }
  - { offset: 0xEF11, size: 0x8, addend: 0x0, symName: __ZNSt3__122__compressed_pair_elemINS_9allocatorIcEELi1ELb1EE5__getB8ne180100Ev, symObjAddr: 0x279C, symBinAddr: 0x100003F80, symSize: 0x14 }
  - { offset: 0xEF3A, size: 0x8, addend: 0x0, symName: __ZNSt3__122__compressed_pair_elemINS_9allocatorIcEELi1ELb1EE5__getB8ne180100Ev, symObjAddr: 0x279C, symBinAddr: 0x100003F80, symSize: 0x14 }
  - { offset: 0xEF42, size: 0x8, addend: 0x0, symName: __ZNSt3__112basic_stringIcNS_11char_traitsIcEENS_9allocatorIcEEE18__get_long_pointerB8ne180100Ev, symObjAddr: 0x27B0, symBinAddr: 0x100003F94, symSize: 0x6C }
  - { offset: 0xEF6C, size: 0x8, addend: 0x0, symName: __ZNSt3__112basic_stringIcNS_11char_traitsIcEENS_9allocatorIcEEE18__get_long_pointerB8ne180100Ev, symObjAddr: 0x27B0, symBinAddr: 0x100003F94, symSize: 0x6C }
  - { offset: 0xEF74, size: 0x8, addend: 0x0, symName: __ZNSt3__112basic_stringIcNS_11char_traitsIcEENS_9allocatorIcEEE19__get_short_pointerB8ne180100Ev, symObjAddr: 0x281C, symBinAddr: 0x100004000, symSize: 0x28 }
  - { offset: 0xEF9D, size: 0x8, addend: 0x0, symName: __ZNSt3__112basic_stringIcNS_11char_traitsIcEENS_9allocatorIcEEE19__get_short_pointerB8ne180100Ev, symObjAddr: 0x281C, symBinAddr: 0x100004000, symSize: 0x28 }
  - { offset: 0xEFA5, size: 0x8, addend: 0x0, symName: __ZNSt3__114pointer_traitsIPcE10pointer_toB8ne180100ERc, symObjAddr: 0x2844, symBinAddr: 0x100004028, symSize: 0x14 }
  - { offset: 0xEFCE, size: 0x8, addend: 0x0, symName: __ZNSt3__114pointer_traitsIPcE10pointer_toB8ne180100ERc, symObjAddr: 0x2844, symBinAddr: 0x100004028, symSize: 0x14 }
  - { offset: 0xEFD6, size: 0x8, addend: 0x0, symName: __ZNSt3__16copy_nB8ne180100IPKcmPcLi0EEET1_T_T0_S4_, symObjAddr: 0x2858, symBinAddr: 0x10000403C, symSize: 0x44 }
  - { offset: 0xF060, size: 0x8, addend: 0x0, symName: __ZNKSt3__114__copy_trivialclB8ne180100IKccLi0EEENS_4pairIPT_PT0_EES5_S5_S7_, symObjAddr: 0x380C, symBinAddr: 0x100004FF0, symSize: 0x228 }
  - { offset: 0xF068, size: 0x8, addend: 0x0, symName: __ZNSt3__113__unwrap_iterB8ne180100IPcNS_18__unwrap_iter_implIS1_Lb1EEELi0EEEDTclsrT0_8__unwrapclsr3stdE7declvalIT_EEEES5_, symObjAddr: 0x3A34, symBinAddr: 0x100005218, symSize: 0x24 }
  - { offset: 0xF11C, size: 0x8, addend: 0x0, symName: __ZNSt3__14pairIPKcS2_EC1B8ne180100ERKS2_S5_, symObjAddr: 0x3F0C, symBinAddr: 0x1000056F0, symSize: 0x3C }
  - { offset: 0xF124, size: 0x8, addend: 0x0, symName: __ZNSt3__14pairIPKcS2_EC2B8ne180100ERKS2_S5_, symObjAddr: 0x3F48, symBinAddr: 0x10000572C, symSize: 0x138 }
  - { offset: 0xF175, size: 0x8, addend: 0x0, symName: __ZNSt3__14pairIPKcS2_EC2B8ne180100ERKS2_S5_, symObjAddr: 0x3F48, symBinAddr: 0x10000572C, symSize: 0x138 }
  - { offset: 0xF17D, size: 0x8, addend: 0x0, symName: __ZNSt3__118__unwrap_iter_implIPKcLb1EE8__unwrapB8ne180100ES2_, symObjAddr: 0x4080, symBinAddr: 0x100005864, symSize: 0x24 }
  - { offset: 0xF1CE, size: 0x8, addend: 0x0, symName: __ZNSt3__118__unwrap_iter_implIPKcLb1EE8__unwrapB8ne180100ES2_, symObjAddr: 0x4080, symBinAddr: 0x100005864, symSize: 0x24 }
  - { offset: 0xF1D6, size: 0x8, addend: 0x0, symName: __ZNSt3__112__to_addressB8ne180100IKcEEPT_S3_, symObjAddr: 0x40A4, symBinAddr: 0x100005888, symSize: 0x14 }
  - { offset: 0xF1FC, size: 0x8, addend: 0x0, symName: __ZNSt3__14pairIPKcPcEC1B8ne180100ERKS2_RKS3_, symObjAddr: 0x4708, symBinAddr: 0x100005EEC, symSize: 0x3C }
  - { offset: 0xF204, size: 0x8, addend: 0x0, symName: __ZNSt3__14pairIPKcPcEC2B8ne180100ERKS2_RKS3_, symObjAddr: 0x4744, symBinAddr: 0x100005F28, symSize: 0x138 }
  - { offset: 0xF255, size: 0x8, addend: 0x0, symName: __ZNSt3__14pairIPKcPcEC2B8ne180100ERKS2_RKS3_, symObjAddr: 0x4744, symBinAddr: 0x100005F28, symSize: 0x138 }
  - { offset: 0xF25D, size: 0x8, addend: 0x0, symName: __ZNSt3__118__unwrap_iter_implIPcLb1EE8__unwrapB8ne180100ES1_, symObjAddr: 0x487C, symBinAddr: 0x100006060, symSize: 0x24 }
  - { offset: 0xF2AE, size: 0x8, addend: 0x0, symName: __ZNSt3__118__unwrap_iter_implIPcLb1EE8__unwrapB8ne180100ES1_, symObjAddr: 0x487C, symBinAddr: 0x100006060, symSize: 0x24 }
  - { offset: 0xF2B6, size: 0x8, addend: 0x0, symName: __ZNSt3__113__rewrap_iterB8ne180100IPKcS2_NS_18__unwrap_iter_implIS2_Lb1EEEEET_S5_T0_, symObjAddr: 0x48A0, symBinAddr: 0x100006084, symSize: 0x5C }
  - { offset: 0xF2DC, size: 0x8, addend: 0x0, symName: __ZNSt3__118__unwrap_iter_implIPKcLb1EE8__rewrapB8ne180100ES2_S2_, symObjAddr: 0x48FC, symBinAddr: 0x1000060E0, symSize: 0x48 }
  - { offset: 0xF2E4, size: 0x8, addend: 0x0, symName: __ZNSt3__118__unwrap_iter_implIPcLb1EE8__rewrapB8ne180100ES1_S1_, symObjAddr: 0x4944, symBinAddr: 0x100006128, symSize: 0x48 }
  - { offset: 0xF31C, size: 0x8, addend: 0x0, symName: __ZNSt3__118__unwrap_iter_implIPcLb1EE8__rewrapB8ne180100ES1_S1_, symObjAddr: 0x4944, symBinAddr: 0x100006128, symSize: 0x48 }
  - { offset: 0xF324, size: 0x8, addend: 0x0, symName: __ZNKSt3__112basic_stringIcNS_11char_traitsIcEENS_9allocatorIcEEE13__get_pointerB8ne180100Ev, symObjAddr: 0x498C, symBinAddr: 0x100006170, symSize: 0x54 }
  - { offset: 0xF35C, size: 0x8, addend: 0x0, symName: __ZNKSt3__112basic_stringIcNS_11char_traitsIcEENS_9allocatorIcEEE13__get_pointerB8ne180100Ev, symObjAddr: 0x498C, symBinAddr: 0x100006170, symSize: 0x54 }
  - { offset: 0xF364, size: 0x8, addend: 0x0, symName: __ZNKSt3__112basic_stringIcNS_11char_traitsIcEENS_9allocatorIcEEE18__get_long_pointerB8ne180100Ev, symObjAddr: 0x49E0, symBinAddr: 0x1000061C4, symSize: 0x6C }
  - { offset: 0xF38D, size: 0x8, addend: 0x0, symName: __ZNKSt3__112basic_stringIcNS_11char_traitsIcEENS_9allocatorIcEEE18__get_long_pointerB8ne180100Ev, symObjAddr: 0x49E0, symBinAddr: 0x1000061C4, symSize: 0x6C }
  - { offset: 0xF395, size: 0x8, addend: 0x0, symName: __ZNKSt3__112basic_stringIcNS_11char_traitsIcEENS_9allocatorIcEEE19__get_short_pointerB8ne180100Ev, symObjAddr: 0x4A4C, symBinAddr: 0x100006230, symSize: 0x28 }
  - { offset: 0xF3BE, size: 0x8, addend: 0x0, symName: __ZNKSt3__112basic_stringIcNS_11char_traitsIcEENS_9allocatorIcEEE19__get_short_pointerB8ne180100Ev, symObjAddr: 0x4A4C, symBinAddr: 0x100006230, symSize: 0x28 }
  - { offset: 0xF3C6, size: 0x8, addend: 0x0, symName: __ZNSt3__114pointer_traitsIPKcE10pointer_toB8ne180100ERS1_, symObjAddr: 0x4A74, symBinAddr: 0x100006258, symSize: 0x14 }
  - { offset: 0xF3EF, size: 0x8, addend: 0x0, symName: __ZNSt3__114pointer_traitsIPKcE10pointer_toB8ne180100ERS1_, symObjAddr: 0x4A74, symBinAddr: 0x100006258, symSize: 0x14 }
  - { offset: 0xF3F7, size: 0x8, addend: 0x0, symName: __ZNSt3__16fill_nB8ne180100IPcmcEET_S2_T0_RKT1_, symObjAddr: 0x4A88, symBinAddr: 0x10000626C, symSize: 0x44 }
  - { offset: 0xF454, size: 0x8, addend: 0x0, symName: __ZNKSt3__113basic_ostreamIcNS_11char_traitsIcEEE6sentrycvbB8ne180100Ev, symObjAddr: 0x5458, symBinAddr: 0x100006C3C, symSize: 0x88 }
  - { offset: 0xF45C, size: 0x8, addend: 0x0, symName: __ZNSt3__116__pad_and_outputB8ne180100IcNS_11char_traitsIcEEEENS_19ostreambuf_iteratorIT_T0_EES6_PKS4_S8_S8_RNS_8ios_baseES4_, symObjAddr: 0x54E0, symBinAddr: 0x100006CC4, symSize: 0x808 }
  - { offset: 0xF485, size: 0x8, addend: 0x0, symName: __ZNSt3__119ostreambuf_iteratorIcNS_11char_traitsIcEEEC1B8ne180100ERNS_13basic_ostreamIcS2_EE, symObjAddr: 0x5CE8, symBinAddr: 0x1000074CC, symSize: 0x34 }
  - { offset: 0xF48D, size: 0x8, addend: 0x0, symName: __ZNKSt3__18ios_base5flagsB8ne180100Ev, symObjAddr: 0x5D1C, symBinAddr: 0x100007500, symSize: 0x8C }
  - { offset: 0xF4CC, size: 0x8, addend: 0x0, symName: __ZNKSt3__18ios_base5flagsB8ne180100Ev, symObjAddr: 0x5D1C, symBinAddr: 0x100007500, symSize: 0x8C }
  - { offset: 0xF4D4, size: 0x8, addend: 0x0, symName: __ZNKSt3__19basic_iosIcNS_11char_traitsIcEEE4fillB8ne180100Ev, symObjAddr: 0x5DA8, symBinAddr: 0x10000758C, symSize: 0x198 }
  - { offset: 0xF4FF, size: 0x8, addend: 0x0, symName: __ZNKSt3__19basic_iosIcNS_11char_traitsIcEEE4fillB8ne180100Ev, symObjAddr: 0x5DA8, symBinAddr: 0x10000758C, symSize: 0x198 }
  - { offset: 0xF507, size: 0x8, addend: 0x0, symName: __ZNKSt3__119ostreambuf_iteratorIcNS_11char_traitsIcEEE6failedB8ne180100Ev, symObjAddr: 0x5F40, symBinAddr: 0x100007724, symSize: 0x6C }
  - { offset: 0xF532, size: 0x8, addend: 0x0, symName: __ZNKSt3__119ostreambuf_iteratorIcNS_11char_traitsIcEEE6failedB8ne180100Ev, symObjAddr: 0x5F40, symBinAddr: 0x100007724, symSize: 0x6C }
  - { offset: 0xF53A, size: 0x8, addend: 0x0, symName: __ZNSt3__19basic_iosIcNS_11char_traitsIcEEE8setstateB8ne180100Ej, symObjAddr: 0x5FAC, symBinAddr: 0x100007790, symSize: 0x2C }
  - { offset: 0xF563, size: 0x8, addend: 0x0, symName: __ZNSt3__19basic_iosIcNS_11char_traitsIcEEE8setstateB8ne180100Ej, symObjAddr: 0x5FAC, symBinAddr: 0x100007790, symSize: 0x2C }
  - { offset: 0xF56B, size: 0x8, addend: 0x0, symName: __ZNKSt3__18ios_base5widthB8ne180100Ev, symObjAddr: 0x5FD8, symBinAddr: 0x1000077BC, symSize: 0x64 }
  - { offset: 0xF5A7, size: 0x8, addend: 0x0, symName: __ZNKSt3__18ios_base5widthB8ne180100Ev, symObjAddr: 0x5FD8, symBinAddr: 0x1000077BC, symSize: 0x64 }
  - { offset: 0xF5AF, size: 0x8, addend: 0x0, symName: __ZNSt3__115basic_streambufIcNS_11char_traitsIcEEE5sputnB8ne180100EPKcl, symObjAddr: 0x603C, symBinAddr: 0x100007820, symSize: 0xC8 }
  - { offset: 0xF5DA, size: 0x8, addend: 0x0, symName: __ZNSt3__115basic_streambufIcNS_11char_traitsIcEEE5sputnB8ne180100EPKcl, symObjAddr: 0x603C, symBinAddr: 0x100007820, symSize: 0xC8 }
  - { offset: 0xF5E2, size: 0x8, addend: 0x0, symName: __ZNSt3__112basic_stringIcNS_11char_traitsIcEENS_9allocatorIcEEEC1B8ne180100Emc, symObjAddr: 0x6104, symBinAddr: 0x1000078E8, symSize: 0x3C }
  - { offset: 0xF62F, size: 0x8, addend: 0x0, symName: __ZNSt3__112basic_stringIcNS_11char_traitsIcEENS_9allocatorIcEEEC1B8ne180100Emc, symObjAddr: 0x6104, symBinAddr: 0x1000078E8, symSize: 0x3C }
  - { offset: 0xF637, size: 0x8, addend: 0x0, symName: __ZNSt3__18ios_base5widthB8ne180100El, symObjAddr: 0x6140, symBinAddr: 0x100007924, symSize: 0xB8 }
  - { offset: 0xF68A, size: 0x8, addend: 0x0, symName: __ZNSt3__18ios_base5widthB8ne180100El, symObjAddr: 0x6140, symBinAddr: 0x100007924, symSize: 0xB8 }
  - { offset: 0xF692, size: 0x8, addend: 0x0, symName: __ZNSt3__112basic_stringIcNS_11char_traitsIcEENS_9allocatorIcEEEC2B8ne180100Emc, symObjAddr: 0x61F8, symBinAddr: 0x1000079DC, symSize: 0x1FC }
  - { offset: 0xF6E3, size: 0x8, addend: 0x0, symName: __ZNSt3__112basic_stringIcNS_11char_traitsIcEENS_9allocatorIcEEEC2B8ne180100Emc, symObjAddr: 0x61F8, symBinAddr: 0x1000079DC, symSize: 0x1FC }
  - { offset: 0xF6EB, size: 0x8, addend: 0x0, symName: __ZNSt3__119ostreambuf_iteratorIcNS_11char_traitsIcEEEC2B8ne180100ERNS_13basic_ostreamIcS2_EE, symObjAddr: 0x63F4, symBinAddr: 0x100007BD8, symSize: 0x120 }
  - { offset: 0xF741, size: 0x8, addend: 0x0, symName: __ZNSt3__119ostreambuf_iteratorIcNS_11char_traitsIcEEEC2B8ne180100ERNS_13basic_ostreamIcS2_EE, symObjAddr: 0x63F4, symBinAddr: 0x100007BD8, symSize: 0x120 }
  - { offset: 0xF749, size: 0x8, addend: 0x0, symName: __ZNKSt3__19basic_iosIcNS_11char_traitsIcEEE5rdbufB8ne180100Ev, symObjAddr: 0x6514, symBinAddr: 0x100007CF8, symSize: 0x24 }
  - { offset: 0xF788, size: 0x8, addend: 0x0, symName: __ZNKSt3__19basic_iosIcNS_11char_traitsIcEEE5rdbufB8ne180100Ev, symObjAddr: 0x6514, symBinAddr: 0x100007CF8, symSize: 0x24 }
  - { offset: 0xF790, size: 0x8, addend: 0x0, symName: __ZNKSt3__18ios_base5rdbufB8ne180100Ev, symObjAddr: 0x6538, symBinAddr: 0x100007D1C, symSize: 0x64 }
  - { offset: 0xF7BB, size: 0x8, addend: 0x0, symName: __ZNKSt3__18ios_base5rdbufB8ne180100Ev, symObjAddr: 0x6538, symBinAddr: 0x100007D1C, symSize: 0x64 }
  - { offset: 0xF7C3, size: 0x8, addend: 0x0, symName: __ZNSt3__111char_traitsIcE11eq_int_typeB8ne180100Eii, symObjAddr: 0x659C, symBinAddr: 0x100007D80, symSize: 0x28 }
  - { offset: 0xF7EC, size: 0x8, addend: 0x0, symName: __ZNSt3__111char_traitsIcE11eq_int_typeB8ne180100Eii, symObjAddr: 0x659C, symBinAddr: 0x100007D80, symSize: 0x28 }
  - { offset: 0xF7F4, size: 0x8, addend: 0x0, symName: __ZNSt3__111char_traitsIcE3eofB8ne180100Ev, symObjAddr: 0x65C4, symBinAddr: 0x100007DA8, symSize: 0x8 }
  - { offset: 0xF82F, size: 0x8, addend: 0x0, symName: __ZNSt3__111char_traitsIcE3eofB8ne180100Ev, symObjAddr: 0x65C4, symBinAddr: 0x100007DA8, symSize: 0x8 }
  - { offset: 0xF837, size: 0x8, addend: 0x0, symName: __ZNKSt3__19basic_iosIcNS_11char_traitsIcEEE5widenB8ne180100Ec, symObjAddr: 0x65CC, symBinAddr: 0x100007DB0, symSize: 0x2F8 }
  - { offset: 0xF84B, size: 0x8, addend: 0x0, symName: __ZNKSt3__19basic_iosIcNS_11char_traitsIcEEE5widenB8ne180100Ec, symObjAddr: 0x65CC, symBinAddr: 0x100007DB0, symSize: 0x2F8 }
  - { offset: 0xF853, size: 0x8, addend: 0x0, symName: __ZNSt3__19use_facetB8ne180100INS_5ctypeIcEEEERKT_RKNS_6localeE, symObjAddr: 0x68C4, symBinAddr: 0x1000080A8, symSize: 0x2C }
  - { offset: 0xF8FC, size: 0x8, addend: 0x0, symName: __ZNKSt3__15ctypeIcE5widenB8ne180100Ec, symObjAddr: 0x68F0, symBinAddr: 0x1000080D4, symSize: 0xBC }
  - { offset: 0xF904, size: 0x8, addend: 0x0, symName: __ZNSt3__18ios_base8setstateB8ne180100Ej, symObjAddr: 0x69AC, symBinAddr: 0x100008190, symSize: 0x9C }
  - { offset: 0xF940, size: 0x8, addend: 0x0, symName: __ZNSt3__18ios_base8setstateB8ne180100Ej, symObjAddr: 0x69AC, symBinAddr: 0x100008190, symSize: 0x9C }
  - { offset: 0xF948, size: 0x8, addend: 0x0, symName: _asan.module_ctor, symObjAddr: 0x6A48, symBinAddr: 0x10000822C, symSize: 0x34 }
  - { offset: 0x13987, size: 0x8, addend: 0x0, symName: __ZN8VectSort6_countE, symObjAddr: 0xD9D60, symBinAddr: 0x1000712E0, symSize: 0x0 }
  - { offset: 0x206A6, size: 0x8, addend: 0x0, symName: __ZNSt3__17advanceB8ne180100IPillvEEvRT_T0_, symObjAddr: 0x24FC4, symBinAddr: 0x10002A504, symSize: 0x38 }
  - { offset: 0x206AE, size: 0x8, addend: 0x0, symName: __ZNSt3__121__convert_to_integralB8ne180100El, symObjAddr: 0x24FFC, symBinAddr: 0x10002A53C, symSize: 0x14 }
  - { offset: 0x209F9, size: 0x8, addend: 0x0, symName: __ZNSt3__17advanceB8ne180100INS_11__wrap_iterIPiEEllvEEvRT_T0_, symObjAddr: 0x2E8BC, symBinAddr: 0x100033DFC, symSize: 0x38 }
  - { offset: 0x20A01, size: 0x8, addend: 0x0, symName: __ZNSt3__16vectorIiNS_9allocatorIiEEE18__construct_at_endINS_11__wrap_iterIPiEES7_EEvT_T0_m, symObjAddr: 0x2E8F4, symBinAddr: 0x100033E34, symSize: 0x5BC }
  - { offset: 0x21CD1, size: 0x8, addend: 0x0, symName: __ZNSt3__16copy_nB8ne180100INS_16__deque_iteratorIiPKiRS2_PKS3_lLl1024EEElNS1_IiPiRiPS8_lLl1024EEELi0EEET1_T_T0_SC_, symObjAddr: 0x4BA80, symBinAddr: 0x100050FC0, symSize: 0x484 }
  - { offset: 0x21CD9, size: 0x8, addend: 0x0, symName: __ZNSt3__116__deque_iteratorIiPKiRS1_PKS2_lLl1024EEC1B8ne180100IPiRiPS8_Li0EEERKNS0_IiT_T0_T1_lLl1024EEE, symObjAddr: 0x4BF04, symBinAddr: 0x100051444, symSize: 0x34 }
  - { offset: 0x22F8B, size: 0x8, addend: 0x0, symName: __ZNSt3__1rsB8ne180100IcNS_11char_traitsIcEENS_9allocatorIcEEEERNS_13basic_istreamIT_T0_EES9_RNS_12basic_stringIS6_S7_T1_EE, symObjAddr: 0xE24, symBinAddr: 0x10000905C, symSize: 0xB5C }
  - { offset: 0x22F93, size: 0x8, addend: 0x0, symName: __ZNKSt3__19basic_iosIcNS_11char_traitsIcEEEcvPvB8ne180100Ev, symObjAddr: 0x1980, symBinAddr: 0x100009BB8, symSize: 0x4C }
  - { offset: 0x230AC, size: 0x8, addend: 0x0, symName: __ZNSt3__1neB8ne180100IPKiEEbRKNS_11__wrap_iterIT_EES7_, symObjAddr: 0x2944, symBinAddr: 0x10000AA34, symSize: 0x34 }
  - { offset: 0x230B4, size: 0x8, addend: 0x0, symName: __ZNKSt3__111__wrap_iterIPKiEdeB8ne180100Ev, symObjAddr: 0x2978, symBinAddr: 0x10000AA68, symSize: 0x60 }
  - { offset: 0x23104, size: 0x8, addend: 0x0, symName: __ZNSt3__15fixedB8ne180100ERNS_8ios_baseE, symObjAddr: 0x2C9C, symBinAddr: 0x10000AD8C, symSize: 0x30 }
  - { offset: 0x2310C, size: 0x8, addend: 0x0, symName: __ZNSt3__19is_sortedB8ne180100INS_11__wrap_iterIPKiEEEEbT_S5_, symObjAddr: 0x2CCC, symBinAddr: 0x10000ADBC, symSize: 0x34C }
  - { offset: 0x2313F, size: 0x8, addend: 0x0, symName: __ZNSt3__19is_sortedB8ne180100INS_11__wrap_iterIPKiEEEEbT_S5_, symObjAddr: 0x2CCC, symBinAddr: 0x10000ADBC, symSize: 0x34C }
  - { offset: 0x23147, size: 0x8, addend: 0x0, symName: __ZNKSt3__16vectorIiNS_9allocatorIiEEE4sizeB8ne180100Ev, symObjAddr: 0x3018, symBinAddr: 0x10000B108, symSize: 0xB0 }
  - { offset: 0x2319F, size: 0x8, addend: 0x0, symName: __ZNSt3__1neB8ne180100IPiEEbRKNS_11__wrap_iterIT_EES6_, symObjAddr: 0x6038, symBinAddr: 0x10000E128, symSize: 0x34 }
  - { offset: 0x231A7, size: 0x8, addend: 0x0, symName: __ZNSt3__16vectorIiNS_9allocatorIiEEE3endB8ne180100Ev, symObjAddr: 0x606C, symBinAddr: 0x10000E15C, symSize: 0x264 }
  - { offset: 0x231F7, size: 0x8, addend: 0x0, symName: __ZNSt3__1eqB8ne180100IPiEEbRKNS_11__wrap_iterIT_EES6_, symObjAddr: 0x62D0, symBinAddr: 0x10000E3C0, symSize: 0x48 }
  - { offset: 0x231FF, size: 0x8, addend: 0x0, symName: __ZNKSt3__111__wrap_iterIPiEplB8ne180100El, symObjAddr: 0x6318, symBinAddr: 0x10000E408, symSize: 0x204 }
  - { offset: 0x2324F, size: 0x8, addend: 0x0, symName: __ZNSt3__18distanceB8ne180100INS_11__wrap_iterIPiEEEENS_15iterator_traitsIT_E15difference_typeES5_S5_, symObjAddr: 0x8910, symBinAddr: 0x100010A00, symSize: 0x348 }
  - { offset: 0x23257, size: 0x8, addend: 0x0, symName: __ZNKSt3__111__wrap_iterIPiEmiB8ne180100El, symObjAddr: 0x8C58, symBinAddr: 0x100010D48, symSize: 0x23C }
  - { offset: 0x232AF, size: 0x8, addend: 0x0, symName: __ZNSt3__14findB8ne180100INS_11__wrap_iterIPlEEiEET_S4_S4_RKT0_, symObjAddr: 0xC2D0, symBinAddr: 0x1000143C0, symSize: 0x4A4 }
  - { offset: 0x232B7, size: 0x8, addend: 0x0, symName: __ZNSt3__16vectorIlNS_9allocatorIlEEE5beginB8ne180100Ev, symObjAddr: 0xC774, symBinAddr: 0x100014864, symSize: 0x260 }
  - { offset: 0x23346, size: 0x8, addend: 0x0, symName: __ZNSt3__1eqB8ne180100IPlEEbRKNS_11__wrap_iterIT_EES6_, symObjAddr: 0xCC38, symBinAddr: 0x100014D28, symSize: 0x48 }
  - { offset: 0x2334E, size: 0x8, addend: 0x0, symName: __ZNSt3__16vectorIiNS_9allocatorIiEEE9push_backB8ne180100ERKi, symObjAddr: 0xCC80, symBinAddr: 0x100014D70, symSize: 0x140 }
  - { offset: 0x2339E, size: 0x8, addend: 0x0, symName: __ZNSt3__1neB8ne180100ERKNS_16__deque_iteratorIiPKiRS1_PKS2_lLl1024EEES8_, symObjAddr: 0x10224, symBinAddr: 0x100018314, symSize: 0x34 }
  - { offset: 0x233A6, size: 0x8, addend: 0x0, symName: __ZNKSt3__116__deque_iteratorIiPKiRS1_PKS2_lLl1024EEdeB8ne180100Ev, symObjAddr: 0x10258, symBinAddr: 0x100018348, symSize: 0x64 }
  - { offset: 0x233EC, size: 0x8, addend: 0x0, symName: __ZNSt3__1neB8ne180100ERKNS_16__deque_iteratorIiPiRiPS1_lLl1024EEES6_, symObjAddr: 0x1369C, symBinAddr: 0x10001B78C, symSize: 0x34 }
  - { offset: 0x233F4, size: 0x8, addend: 0x0, symName: __ZNKSt3__116__deque_iteratorIiPiRiPS1_lLl1024EEdeB8ne180100Ev, symObjAddr: 0x136D0, symBinAddr: 0x10001B7C0, symSize: 0x64 }
  - { offset: 0x2343A, size: 0x8, addend: 0x0, symName: __ZNSt3__112__to_addressB8ne180100IiEEPT_S2_, symObjAddr: 0x14B60, symBinAddr: 0x10001CC50, symSize: 0x14 }
  - { offset: 0x23442, size: 0x8, addend: 0x0, symName: __ZNSt3__19allocatorIiE7destroyB8ne180100EPi, symObjAddr: 0x14B74, symBinAddr: 0x10001CC64, symSize: 0x14 }
  - { offset: 0x23482, size: 0x8, addend: 0x0, symName: __ZNSt3__119__libcpp_deallocateB8ne180100EPvmm, symObjAddr: 0x14D0C, symBinAddr: 0x10001CDF0, symSize: 0x30 }
  - { offset: 0x2348A, size: 0x8, addend: 0x0, symName: __ZNSt3__127__do_deallocate_handle_sizeB8ne180100IJEEEvPvmDpT_, symObjAddr: 0x14D3C, symBinAddr: 0x10001CE20, symSize: 0x28 }
  - { offset: 0x234DC, size: 0x8, addend: 0x0, symName: __ZNSt3__127__do_deallocate_handle_sizeB8ne180100IJEEEvPvmDpT_, symObjAddr: 0x14D3C, symBinAddr: 0x10001CE20, symSize: 0x28 }
  - { offset: 0x234E4, size: 0x8, addend: 0x0, symName: __ZNSt3__124__libcpp_operator_deleteB8ne180100IJPvEEEvDpT_, symObjAddr: 0x14D64, symBinAddr: 0x10001CE48, symSize: 0x24 }
  - { offset: 0x23529, size: 0x8, addend: 0x0, symName: __ZNSt3__124__libcpp_operator_deleteB8ne180100IJPvEEEvDpT_, symObjAddr: 0x14D64, symBinAddr: 0x10001CE48, symSize: 0x24 }
  - { offset: 0x23531, size: 0x8, addend: 0x0, symName: __ZNSt3__117__compressed_pairIPiNS_9allocatorIiEEE6secondB8ne180100Ev, symObjAddr: 0x14D88, symBinAddr: 0x10001CE6C, symSize: 0x24 }
  - { offset: 0x2383A, size: 0x8, addend: 0x0, symName: __ZNSt3__13maxB8ne180100ImEERKT_S3_S3_, symObjAddr: 0x19774, symBinAddr: 0x1000209C0, symSize: 0x2C }
  - { offset: 0x23842, size: 0x8, addend: 0x0, symName: __ZNSt3__13minB8ne180100ImEERKT_S3_S3_, symObjAddr: 0x197A0, symBinAddr: 0x1000209EC, symSize: 0x2C }
  - { offset: 0x23892, size: 0x8, addend: 0x0, symName: __ZNSt3__13minB8ne180100ImEERKT_S3_S3_, symObjAddr: 0x197A0, symBinAddr: 0x1000209EC, symSize: 0x2C }
  - { offset: 0x2389A, size: 0x8, addend: 0x0, symName: __ZNSt3__116allocator_traitsINS_9allocatorIiEEE8max_sizeB8ne180100IS2_vEEmRKS2_, symObjAddr: 0x197CC, symBinAddr: 0x100020A18, symSize: 0x24 }
  - { offset: 0x238EA, size: 0x8, addend: 0x0, symName: __ZNSt3__13minB8ne180100ImNS_6__lessIvvEEEERKT_S5_S5_T0_, symObjAddr: 0x19818, symBinAddr: 0x100020A64, symSize: 0x1E0 }
  - { offset: 0x238F2, size: 0x8, addend: 0x0, symName: __ZNKSt3__16__lessIvvEclB8ne180100ImmEEbRKT_RKT0_, symObjAddr: 0x199F8, symBinAddr: 0x100020C44, symSize: 0xBC }
  - { offset: 0x23A63, size: 0x8, addend: 0x0, symName: __ZNSt3__13maxB8ne180100ImNS_6__lessIvvEEEERKT_S5_S5_T0_, symObjAddr: 0x19C20, symBinAddr: 0x100020D4C, symSize: 0x1E0 }
  - { offset: 0x23A6B, size: 0x8, addend: 0x0, symName: __ZNSt3__114__split_bufferIiRNS_9allocatorIiEEEC2EmmS3_, symObjAddr: 0x19E00, symBinAddr: 0x100020F2C, symSize: 0x510 }
  - { offset: 0x23AE0, size: 0x8, addend: 0x0, symName: __ZNSt3__119__allocate_at_leastB8ne180100INS_9allocatorIiEEEENS_19__allocation_resultINS_16allocator_traitsIT_E7pointerEEERS5_m, symObjAddr: 0x1A34C, symBinAddr: 0x100021478, symSize: 0x284 }
  - { offset: 0x23AE8, size: 0x8, addend: 0x0, symName: __ZNSt3__114__split_bufferIiRNS_9allocatorIiEEE7__allocB8ne180100Ev, symObjAddr: 0x1A5D0, symBinAddr: 0x1000216FC, symSize: 0x28 }
  - { offset: 0x23B3A, size: 0x8, addend: 0x0, symName: __ZNSt3__142__uninitialized_allocator_move_if_noexceptB8ne180100INS_9allocatorIiEENS_16reverse_iteratorIPiEES5_ivEET1_RT_T0_S9_S6_, symObjAddr: 0x1A890, symBinAddr: 0x100021938, symSize: 0x548 }
  - { offset: 0x23B42, size: 0x8, addend: 0x0, symName: __ZNSt3__116reverse_iteratorIPiEC1B8ne180100ES1_, symObjAddr: 0x1ADD8, symBinAddr: 0x100021E80, symSize: 0x34 }
  - { offset: 0x23BED, size: 0x8, addend: 0x0, symName: __ZNSt3__14swapB8ne180100IPiEEvRT_S3_, symObjAddr: 0x1AE70, symBinAddr: 0x100021F18, symSize: 0x134 }
  - { offset: 0x23BF5, size: 0x8, addend: 0x0, symName: __ZNKSt3__16vectorIiNS_9allocatorIiEEE14__annotate_newB8ne180100Em, symObjAddr: 0x1AFA4, symBinAddr: 0x10002204C, symSize: 0x94 }
  - { offset: 0x23C57, size: 0x8, addend: 0x0, symName: __ZNSt3__1neB8ne180100IPiS1_EEbRKNS_16reverse_iteratorIT_EERKNS2_IT0_EE, symObjAddr: 0x1B038, symBinAddr: 0x1000220E0, symSize: 0x48 }
  - { offset: 0x23C5F, size: 0x8, addend: 0x0, symName: __ZNSt3__114__construct_atB8ne180100IiJiEPiEEPT_S3_DpOT0_, symObjAddr: 0x1B080, symBinAddr: 0x100022128, symSize: 0x100 }
  - { offset: 0x23CBC, size: 0x8, addend: 0x0, symName: __ZNSt3__114__construct_atB8ne180100IiJiEPiEEPT_S3_DpOT0_, symObjAddr: 0x1B080, symBinAddr: 0x100022128, symSize: 0x100 }
  - { offset: 0x23CC4, size: 0x8, addend: 0x0, symName: __ZNSt3__112__to_addressB8ne180100INS_16reverse_iteratorIPiEEvEEu7__decayIDTclsr19__to_address_helperIT_EE6__callclsr3stdE7declvalIRKS4_EEEEES6_, symObjAddr: 0x1B180, symBinAddr: 0x100022228, symSize: 0x24 }
  - { offset: 0x23D2C, size: 0x8, addend: 0x0, symName: __ZNSt3__112__to_addressB8ne180100INS_16reverse_iteratorIPiEEvEEu7__decayIDTclsr19__to_address_helperIT_EE6__callclsr3stdE7declvalIRKS4_EEEEES6_, symObjAddr: 0x1B180, symBinAddr: 0x100022228, symSize: 0x24 }
  - { offset: 0x23D34, size: 0x8, addend: 0x0, symName: __ZNKSt3__116reverse_iteratorIPiEdeB8ne180100Ev, symObjAddr: 0x1B1A4, symBinAddr: 0x10002224C, symSize: 0x74 }
  - { offset: 0x23D73, size: 0x8, addend: 0x0, symName: __ZNSt3__14moveB8ne180100INS_16reverse_iteratorIPiEES3_EET0_T_S5_S4_, symObjAddr: 0x1B284, symBinAddr: 0x10002232C, symSize: 0x4B0 }
  - { offset: 0x23D7B, size: 0x8, addend: 0x0, symName: __ZNSt3__119__to_address_helperINS_16reverse_iteratorIPiEEvE6__callB8ne180100ERKS3_, symObjAddr: 0x1B734, symBinAddr: 0x1000227DC, symSize: 0x58 }
  - { offset: 0x23E30, size: 0x8, addend: 0x0, symName: __ZNSt3__16__moveB8ne180100INS_17_ClassicAlgPolicyENS_16reverse_iteratorIPiEES4_S4_EENS_4pairIT0_T2_EES6_T1_S7_, symObjAddr: 0x1B7B0, symBinAddr: 0x100022858, symSize: 0x41C }
  - { offset: 0x23E38, size: 0x8, addend: 0x0, symName: __ZNSt3__123__dispatch_copy_or_moveB8ne180100INS_17_ClassicAlgPolicyENS_11__move_loopIS1_EENS_14__move_trivialENS_16reverse_iteratorIPiEES7_S7_EENS_4pairIT2_T4_EES9_T3_SA_, symObjAddr: 0x1BBCC, symBinAddr: 0x100022C74, symSize: 0x41C }
  - { offset: 0x23ECD, size: 0x8, addend: 0x0, symName: __ZNSt3__123__dispatch_copy_or_moveB8ne180100INS_17_ClassicAlgPolicyENS_11__move_loopIS1_EENS_14__move_trivialENS_16reverse_iteratorIPiEES7_S7_EENS_4pairIT2_T4_EES9_T3_SA_, symObjAddr: 0x1BBCC, symBinAddr: 0x100022C74, symSize: 0x41C }
  - { offset: 0x23ED5, size: 0x8, addend: 0x0, symName: __ZNSt3__121__unwrap_and_dispatchB8ne180100INS_10__overloadINS_11__move_loopINS_17_ClassicAlgPolicyEEENS_14__move_trivialEEENS_16reverse_iteratorIPiEES9_S9_Li0EEENS_4pairIT0_T2_EESB_T1_SC_, symObjAddr: 0x1BFE8, symBinAddr: 0x100023090, symSize: 0x880 }
  - { offset: 0x23F84, size: 0x8, addend: 0x0, symName: __ZNSt3__121__unwrap_and_dispatchB8ne180100INS_10__overloadINS_11__move_loopINS_17_ClassicAlgPolicyEEENS_14__move_trivialEEENS_16reverse_iteratorIPiEES9_S9_Li0EEENS_4pairIT0_T2_EESB_T1_SC_, symObjAddr: 0x1BFE8, symBinAddr: 0x100023090, symSize: 0x880 }
  - { offset: 0x23F8C, size: 0x8, addend: 0x0, symName: __ZNSt3__114__unwrap_rangeB8ne180100INS_16reverse_iteratorIPiEES3_EENS_4pairIT0_S5_EET_S7_, symObjAddr: 0x1C868, symBinAddr: 0x100023910, symSize: 0x440 }
  - { offset: 0x24059, size: 0x8, addend: 0x0, symName: __ZNSt3__114__unwrap_rangeB8ne180100INS_16reverse_iteratorIPiEES3_EENS_4pairIT0_S5_EET_S7_, symObjAddr: 0x1C868, symBinAddr: 0x100023910, symSize: 0x440 }
  - { offset: 0x24061, size: 0x8, addend: 0x0, symName: __ZNKSt3__111__move_loopINS_17_ClassicAlgPolicyEEclB8ne180100INS_16reverse_iteratorIPiEES6_S6_EENS_4pairIT_T1_EES8_T0_S9_, symObjAddr: 0x1CCA8, symBinAddr: 0x100023D50, symSize: 0x3E8 }
  - { offset: 0x242A8, size: 0x8, addend: 0x0, symName: __ZNSt3__113__unwrap_iterB8ne180100INS_16reverse_iteratorIPiEENS_18__unwrap_iter_implIS3_Lb0EEELi0EEEDTclsrT0_8__unwrapclsr3stdE7declvalIT_EEEES7_, symObjAddr: 0x1D090, symBinAddr: 0x100024138, symSize: 0x2DC }
  - { offset: 0x242B0, size: 0x8, addend: 0x0, symName: __ZNSt3__19make_pairB8ne180100INS_16reverse_iteratorIPiEES3_EENS_4pairINS_18__unwrap_ref_decayIT_E4typeENS5_IT0_E4typeEEEOS6_OS9_, symObjAddr: 0x1D36C, symBinAddr: 0x100024414, symSize: 0x38 }
  - { offset: 0x24309, size: 0x8, addend: 0x0, symName: __ZNSt3__19make_pairB8ne180100INS_16reverse_iteratorIPiEES3_EENS_4pairINS_18__unwrap_ref_decayIT_E4typeENS5_IT0_E4typeEEEOS6_OS9_, symObjAddr: 0x1D36C, symBinAddr: 0x100024414, symSize: 0x38 }
  - { offset: 0x24311, size: 0x8, addend: 0x0, symName: __ZNSt3__114__rewrap_rangeB8ne180100INS_16reverse_iteratorIPiEES3_EET_S4_T0_, symObjAddr: 0x1D3A4, symBinAddr: 0x10002444C, symSize: 0x3CC }
  - { offset: 0x24371, size: 0x8, addend: 0x0, symName: __ZNSt3__114__rewrap_rangeB8ne180100INS_16reverse_iteratorIPiEES3_EET_S4_T0_, symObjAddr: 0x1D3A4, symBinAddr: 0x10002444C, symSize: 0x3CC }
  - { offset: 0x24379, size: 0x8, addend: 0x0, symName: __ZNSt3__113__rewrap_iterB8ne180100INS_16reverse_iteratorIPiEES3_NS_18__unwrap_iter_implIS3_Lb0EEEEET_S6_T0_, symObjAddr: 0x1D770, symBinAddr: 0x100024818, symSize: 0x460 }
  - { offset: 0x243DE, size: 0x8, addend: 0x0, symName: __ZNSt3__113__rewrap_iterB8ne180100INS_16reverse_iteratorIPiEES3_NS_18__unwrap_iter_implIS3_Lb0EEEEET_S6_T0_, symObjAddr: 0x1D770, symBinAddr: 0x100024818, symSize: 0x460 }
  - { offset: 0x243E6, size: 0x8, addend: 0x0, symName: __ZNSt3__18_IterOpsINS_17_ClassicAlgPolicyEE11__iter_moveB8ne180100IRNS_16reverse_iteratorIPiEELi0EEEDTclsr3stdE4movedeclsr3stdE7declvalIRT_EEEEOS8_, symObjAddr: 0x1DBD0, symBinAddr: 0x100024C78, symSize: 0x28 }
  - { offset: 0x245A7, size: 0x8, addend: 0x0, symName: __ZNSt3__1eqB8ne180100IPKiEEbRKNS_11__wrap_iterIT_EES7_, symObjAddr: 0x20420, symBinAddr: 0x100025960, symSize: 0x48 }
  - { offset: 0x245AF, size: 0x8, addend: 0x0, symName: __ZNKSt3__111__wrap_iterIPKiE4baseB8ne180100Ev, symObjAddr: 0x20468, symBinAddr: 0x1000259A8, symSize: 0x60 }
  - { offset: 0x245FF, size: 0x8, addend: 0x0, symName: __ZNSt3__19is_sortedB8ne180100INS_11__wrap_iterIPKiEENS_6__lessIvvEEEEbT_S7_T0_, symObjAddr: 0x20530, symBinAddr: 0x100025A70, symSize: 0x3E4 }
  - { offset: 0x24607, size: 0x8, addend: 0x0, symName: __ZNSt3__117__is_sorted_untilB8ne180100IRNS_6__lessIvvEENS_11__wrap_iterIPKiEEEET0_S8_S8_T_, symObjAddr: 0x20914, symBinAddr: 0x100025E54, symSize: 0x368 }
  - { offset: 0x24682, size: 0x8, addend: 0x0, symName: __ZNSt3__117__is_sorted_untilB8ne180100IRNS_6__lessIvvEENS_11__wrap_iterIPKiEEEET0_S8_S8_T_, symObjAddr: 0x20914, symBinAddr: 0x100025E54, symSize: 0x368 }
  - { offset: 0x2468A, size: 0x8, addend: 0x0, symName: __ZNKSt3__16__lessIvvEclB8ne180100IiiEEbRKT_RKT0_, symObjAddr: 0x20C7C, symBinAddr: 0x1000261BC, symSize: 0x10C }
  - { offset: 0x2472A, size: 0x8, addend: 0x0, symName: __ZNSt3__122__make_exception_guardB8ne180100INS_6vectorIiNS_9allocatorIiEEE16__destroy_vectorEEENS_28__exception_guard_exceptionsIT_EES7_, symObjAddr: 0x21564, symBinAddr: 0x100026AA4, symSize: 0x268 }
  - { offset: 0x24732, size: 0x8, addend: 0x0, symName: __ZNSt3__16vectorIiNS_9allocatorIiEEE11__vallocateB8ne180100Em, symObjAddr: 0x217CC, symBinAddr: 0x100026D0C, symSize: 0x418 }
  - { offset: 0x24774, size: 0x8, addend: 0x0, symName: __ZNSt3__130__uninitialized_allocator_copyB8ne180100INS_9allocatorIiEEPiS3_S3_EET2_RT_T0_T1_S4_, symObjAddr: 0x22508, symBinAddr: 0x100027A48, symSize: 0x2D4 }
  - { offset: 0x2477C, size: 0x8, addend: 0x0, symName: __ZNSt3__114__unwrap_rangeB8ne180100IPiS1_EENS_4pairIT0_S3_EET_S5_, symObjAddr: 0x227DC, symBinAddr: 0x100027D1C, symSize: 0x340 }
  - { offset: 0x2484B, size: 0x8, addend: 0x0, symName: __ZNSt3__114__unwrap_rangeB8ne180100IPiS1_EENS_4pairIT0_S3_EET_S5_, symObjAddr: 0x227DC, symBinAddr: 0x100027D1C, symSize: 0x340 }
  - { offset: 0x24853, size: 0x8, addend: 0x0, symName: __ZNSt3__135__uninitialized_allocator_copy_implB8ne180100INS_9allocatorIiEEPiS3_S3_EET2_RT_T0_T1_S4_, symObjAddr: 0x22B1C, symBinAddr: 0x10002805C, symSize: 0x594 }
  - { offset: 0x248B2, size: 0x8, addend: 0x0, symName: __ZNSt3__135__uninitialized_allocator_copy_implB8ne180100INS_9allocatorIiEEPiS3_S3_EET2_RT_T0_T1_S4_, symObjAddr: 0x22B1C, symBinAddr: 0x10002805C, symSize: 0x594 }
  - { offset: 0x248BA, size: 0x8, addend: 0x0, symName: __ZNSt3__113__unwrap_iterB8ne180100IPiNS_18__unwrap_iter_implIS1_Lb1EEELi0EEEDTclsrT0_8__unwrapclsr3stdE7declvalIT_EEEES5_, symObjAddr: 0x230B0, symBinAddr: 0x1000285F0, symSize: 0x24 }
  - { offset: 0x2498F, size: 0x8, addend: 0x0, symName: __ZNSt3__113__unwrap_iterB8ne180100IPiNS_18__unwrap_iter_implIS1_Lb1EEELi0EEEDTclsrT0_8__unwrapclsr3stdE7declvalIT_EEEES5_, symObjAddr: 0x230B0, symBinAddr: 0x1000285F0, symSize: 0x24 }
  - { offset: 0x24997, size: 0x8, addend: 0x0, symName: __ZNSt3__113__rewrap_iterB8ne180100IPiS1_NS_18__unwrap_iter_implIS1_Lb1EEEEET_S4_T0_, symObjAddr: 0x230D4, symBinAddr: 0x100028614, symSize: 0x5C }
  - { offset: 0x249EC, size: 0x8, addend: 0x0, symName: __ZNSt3__113__rewrap_iterB8ne180100IPiS1_NS_18__unwrap_iter_implIS1_Lb1EEEEET_S4_T0_, symObjAddr: 0x230D4, symBinAddr: 0x100028614, symSize: 0x5C }
  - { offset: 0x249F4, size: 0x8, addend: 0x0, symName: __ZNSt3__19make_pairB8ne180100IPiS1_EENS_4pairINS_18__unwrap_ref_decayIT_E4typeENS3_IT0_E4typeEEEOS4_OS7_, symObjAddr: 0x23130, symBinAddr: 0x100028670, symSize: 0x204 }
  - { offset: 0x24A5E, size: 0x8, addend: 0x0, symName: __ZNSt3__19make_pairB8ne180100IPiS1_EENS_4pairINS_18__unwrap_ref_decayIT_E4typeENS3_IT0_E4typeEEEOS4_OS7_, symObjAddr: 0x23130, symBinAddr: 0x100028670, symSize: 0x204 }
  - { offset: 0x24A66, size: 0x8, addend: 0x0, symName: __ZNSt3__14pairIPiS1_EC1B8ne180100ERKS1_S4_, symObjAddr: 0x23334, symBinAddr: 0x100028874, symSize: 0x3C }
  - { offset: 0x24BCF, size: 0x8, addend: 0x0, symName: __ZNSt3__122__make_exception_guardB8ne180100INS_29_AllocatorDestroyRangeReverseINS_9allocatorIiEEPiEEEENS_28__exception_guard_exceptionsIT_EES7_, symObjAddr: 0x234A8, symBinAddr: 0x1000289E8, symSize: 0x1E8 }
  - { offset: 0x24BD7, size: 0x8, addend: 0x0, symName: __ZNSt3__129_AllocatorDestroyRangeReverseINS_9allocatorIiEEPiEC1B8ne180100ERS2_RS3_S6_, symObjAddr: 0x23690, symBinAddr: 0x100028BD0, symSize: 0x44 }
  - { offset: 0x24C18, size: 0x8, addend: 0x0, symName: __ZNSt3__119__allocator_destroyB8ne180100INS_9allocatorIiEENS_16reverse_iteratorIPiEES5_EEvRT_T0_T1_, symObjAddr: 0x23ED4, symBinAddr: 0x100029414, symSize: 0x2A8 }
  - { offset: 0x24C20, size: 0x8, addend: 0x0, symName: __ZNSt3__118__unwrap_iter_implIPiLb1EE8__unwrapB8ne180100ES1_, symObjAddr: 0x2417C, symBinAddr: 0x1000296BC, symSize: 0x24 }
  - { offset: 0x24D19, size: 0x8, addend: 0x0, symName: __ZNSt3__18distanceB8ne180100IPiEENS_15iterator_traitsIT_E15difference_typeES3_S3_, symObjAddr: 0x24718, symBinAddr: 0x100029C58, symSize: 0x2C }
  - { offset: 0x24D21, size: 0x8, addend: 0x0, symName: __ZNSt3__14nextB8ne180100IPiLi0EEET_S2_NS_15iterator_traitsIS2_E15difference_typeE, symObjAddr: 0x24744, symBinAddr: 0x100029C84, symSize: 0x230 }
  - { offset: 0x24D71, size: 0x8, addend: 0x0, symName: __ZNSt3__14nextB8ne180100IPiLi0EEET_S2_NS_15iterator_traitsIS2_E15difference_typeE, symObjAddr: 0x24744, symBinAddr: 0x100029C84, symSize: 0x230 }
  - { offset: 0x24D79, size: 0x8, addend: 0x0, symName: __ZNSt3__14copyB8ne180100IPiS1_EET0_T_S3_S2_, symObjAddr: 0x24974, symBinAddr: 0x100029EB4, symSize: 0x24C }
  - { offset: 0x24DD8, size: 0x8, addend: 0x0, symName: __ZNSt3__14copyB8ne180100IPiS1_EET0_T_S3_S2_, symObjAddr: 0x24974, symBinAddr: 0x100029EB4, symSize: 0x24C }
  - { offset: 0x24DE0, size: 0x8, addend: 0x0, symName: __ZNSt3__16__copyB8ne180100INS_17_ClassicAlgPolicyEPiS2_S2_EENS_4pairIT0_T2_EES4_T1_S5_, symObjAddr: 0x24BC0, symBinAddr: 0x10002A100, symSize: 0x224 }
  - { offset: 0x24E52, size: 0x8, addend: 0x0, symName: __ZNSt3__16__copyB8ne180100INS_17_ClassicAlgPolicyEPiS2_S2_EENS_4pairIT0_T2_EES4_T1_S5_, symObjAddr: 0x24BC0, symBinAddr: 0x10002A100, symSize: 0x224 }
  - { offset: 0x24E5A, size: 0x8, addend: 0x0, symName: __ZNSt3__16vectorIiNS_9allocatorIiEEE17__destruct_at_endB8ne180100EPi, symObjAddr: 0x24DE4, symBinAddr: 0x10002A324, symSize: 0x4C }
  - { offset: 0x24EE6, size: 0x8, addend: 0x0, symName: __ZNSt3__121__convert_to_integralB8ne180100El, symObjAddr: 0x24FFC, symBinAddr: 0x10002A53C, symSize: 0x14 }
  - { offset: 0x24EEE, size: 0x8, addend: 0x0, symName: __ZNSt3__19__advanceB8ne180100IPiEEvRT_NS_15iterator_traitsIS2_E15difference_typeENS_26random_access_iterator_tagE, symObjAddr: 0x25010, symBinAddr: 0x10002A550, symSize: 0x78 }
  - { offset: 0x24F21, size: 0x8, addend: 0x0, symName: __ZNSt3__19__advanceB8ne180100IPiEEvRT_NS_15iterator_traitsIS2_E15difference_typeENS_26random_access_iterator_tagE, symObjAddr: 0x25010, symBinAddr: 0x10002A550, symSize: 0x78 }
  - { offset: 0x24F29, size: 0x8, addend: 0x0, symName: __ZNSt3__123__dispatch_copy_or_moveB8ne180100INS_17_ClassicAlgPolicyENS_11__copy_loopIS1_EENS_14__copy_trivialEPiS5_S5_EENS_4pairIT2_T4_EES7_T3_S8_, symObjAddr: 0x25088, symBinAddr: 0x10002A5C8, symSize: 0x224 }
  - { offset: 0x24F7F, size: 0x8, addend: 0x0, symName: __ZNSt3__123__dispatch_copy_or_moveB8ne180100INS_17_ClassicAlgPolicyENS_11__copy_loopIS1_EENS_14__copy_trivialEPiS5_S5_EENS_4pairIT2_T4_EES7_T3_S8_, symObjAddr: 0x25088, symBinAddr: 0x10002A5C8, symSize: 0x224 }
  - { offset: 0x24F87, size: 0x8, addend: 0x0, symName: __ZNSt3__121__unwrap_and_dispatchB8ne180100INS_10__overloadINS_11__copy_loopINS_17_ClassicAlgPolicyEEENS_14__copy_trivialEEEPiS7_S7_Li0EEENS_4pairIT0_T2_EES9_T1_SA_, symObjAddr: 0x252AC, symBinAddr: 0x10002A7EC, symSize: 0x59C }
  - { offset: 0x2502D, size: 0x8, addend: 0x0, symName: __ZNSt3__121__unwrap_and_dispatchB8ne180100INS_10__overloadINS_11__copy_loopINS_17_ClassicAlgPolicyEEENS_14__copy_trivialEEEPiS7_S7_Li0EEENS_4pairIT0_T2_EES9_T1_SA_, symObjAddr: 0x252AC, symBinAddr: 0x10002A7EC, symSize: 0x59C }
  - { offset: 0x25035, size: 0x8, addend: 0x0, symName: __ZNKSt3__114__copy_trivialclB8ne180100IiiLi0EEENS_4pairIPT_PT0_EES4_S4_S6_, symObjAddr: 0x25848, symBinAddr: 0x10002AD88, symSize: 0x228 }
  - { offset: 0x251BF, size: 0x8, addend: 0x0, symName: __ZNSt3__114__rewrap_rangeB8ne180100IPiS1_EET_S2_T0_, symObjAddr: 0x25A70, symBinAddr: 0x10002AFB0, symSize: 0x2C }
  - { offset: 0x251C7, size: 0x8, addend: 0x0, symName: __ZNSt3__119__copy_trivial_implB8ne180100IiiEENS_4pairIPT_PT0_EES3_S3_S5_, symObjAddr: 0x25A9C, symBinAddr: 0x10002AFDC, symSize: 0x3A4 }
  - { offset: 0x25224, size: 0x8, addend: 0x0, symName: __ZNSt3__119__copy_trivial_implB8ne180100IiiEENS_4pairIPT_PT0_EES3_S3_S5_, symObjAddr: 0x25A9C, symBinAddr: 0x10002AFDC, symSize: 0x3A4 }
  - { offset: 0x2522C, size: 0x8, addend: 0x0, symName: __ZNSt3__119__constexpr_memmoveB8ne180100IiiLi0EEEPT_S2_PT0_NS_15__element_countE, symObjAddr: 0x25E40, symBinAddr: 0x10002B380, symSize: 0xB0 }
  - { offset: 0x252B4, size: 0x8, addend: 0x0, symName: __ZNSt3__119__constexpr_memmoveB8ne180100IiiLi0EEEPT_S2_PT0_NS_15__element_countE, symObjAddr: 0x25E40, symBinAddr: 0x10002B380, symSize: 0xB0 }
  - { offset: 0x252BC, size: 0x8, addend: 0x0, symName: __ZNSt3__19make_pairB8ne180100IRPiS1_EENS_4pairINS_18__unwrap_ref_decayIT_E4typeENS4_IT0_E4typeEEEOS5_OS8_, symObjAddr: 0x25EF0, symBinAddr: 0x10002B430, symSize: 0x204 }
  - { offset: 0x25347, size: 0x8, addend: 0x0, symName: __ZNSt3__19make_pairB8ne180100IRPiS1_EENS_4pairINS_18__unwrap_ref_decayIT_E4typeENS4_IT0_E4typeEEEOS5_OS8_, symObjAddr: 0x25EF0, symBinAddr: 0x10002B430, symSize: 0x204 }
  - { offset: 0x2534F, size: 0x8, addend: 0x0, symName: __ZNSt3__110__distanceB8ne180100IPiEENS_15iterator_traitsIT_E15difference_typeES3_S3_NS_26random_access_iterator_tagE, symObjAddr: 0x260F4, symBinAddr: 0x10002B634, symSize: 0x28 }
  - { offset: 0x253B1, size: 0x8, addend: 0x0, symName: __ZNSt3__110__distanceB8ne180100IPiEENS_15iterator_traitsIT_E15difference_typeES3_S3_NS_26random_access_iterator_tagE, symObjAddr: 0x260F4, symBinAddr: 0x10002B634, symSize: 0x28 }
  - { offset: 0x253B9, size: 0x8, addend: 0x0, symName: __ZNSt3__16vectorIlNS_9allocatorIlEEEC2B8ne180100Ev, symObjAddr: 0x2611C, symBinAddr: 0x10002B65C, symSize: 0x2C4 }
  - { offset: 0x25418, size: 0x8, addend: 0x0, symName: __ZNSt3__112__to_addressB8ne180100IlEEPT_S2_, symObjAddr: 0x26D40, symBinAddr: 0x10002C280, symSize: 0x14 }
  - { offset: 0x25420, size: 0x8, addend: 0x0, symName: __ZNSt3__19allocatorIlE7destroyB8ne180100EPl, symObjAddr: 0x26D54, symBinAddr: 0x10002C294, symSize: 0x14 }
  - { offset: 0x2545F, size: 0x8, addend: 0x0, symName: __ZNSt3__119__allocate_at_leastB8ne180100INS_9allocatorIlEEEENS_19__allocation_resultINS_16allocator_traitsIT_E7pointerEEERS5_m, symObjAddr: 0x29178, symBinAddr: 0x10002E6B8, symSize: 0x284 }
  - { offset: 0x25467, size: 0x8, addend: 0x0, symName: __ZNSt3__114__split_bufferIlRNS_9allocatorIlEEE7__allocB8ne180100Ev, symObjAddr: 0x293FC, symBinAddr: 0x10002E93C, symSize: 0x28 }
  - { offset: 0x254B9, size: 0x8, addend: 0x0, symName: __ZNSt3__142__uninitialized_allocator_move_if_noexceptB8ne180100INS_9allocatorIlEENS_16reverse_iteratorIPlEES5_lvEET1_RT_T0_S9_S6_, symObjAddr: 0x29638, symBinAddr: 0x10002EB78, symSize: 0x548 }
  - { offset: 0x254C1, size: 0x8, addend: 0x0, symName: __ZNSt3__116reverse_iteratorIPlEC1B8ne180100ES1_, symObjAddr: 0x29B80, symBinAddr: 0x10002F0C0, symSize: 0x34 }
  - { offset: 0x2556C, size: 0x8, addend: 0x0, symName: __ZNSt3__14swapB8ne180100IPlEEvRT_S3_, symObjAddr: 0x29C18, symBinAddr: 0x10002F158, symSize: 0x134 }
  - { offset: 0x25574, size: 0x8, addend: 0x0, symName: __ZNKSt3__16vectorIlNS_9allocatorIlEEE14__annotate_newB8ne180100Em, symObjAddr: 0x29D4C, symBinAddr: 0x10002F28C, symSize: 0x94 }
  - { offset: 0x255D6, size: 0x8, addend: 0x0, symName: __ZNSt3__1neB8ne180100IPlS1_EEbRKNS_16reverse_iteratorIT_EERKNS2_IT0_EE, symObjAddr: 0x29DE0, symBinAddr: 0x10002F320, symSize: 0x48 }
  - { offset: 0x255DE, size: 0x8, addend: 0x0, symName: __ZNSt3__114__construct_atB8ne180100IlJlEPlEEPT_S3_DpOT0_, symObjAddr: 0x29E28, symBinAddr: 0x10002F368, symSize: 0xB0 }
  - { offset: 0x2563B, size: 0x8, addend: 0x0, symName: __ZNSt3__114__construct_atB8ne180100IlJlEPlEEPT_S3_DpOT0_, symObjAddr: 0x29E28, symBinAddr: 0x10002F368, symSize: 0xB0 }
  - { offset: 0x25643, size: 0x8, addend: 0x0, symName: __ZNSt3__112__to_addressB8ne180100INS_16reverse_iteratorIPlEEvEEu7__decayIDTclsr19__to_address_helperIT_EE6__callclsr3stdE7declvalIRKS4_EEEEES6_, symObjAddr: 0x29ED8, symBinAddr: 0x10002F418, symSize: 0x24 }
  - { offset: 0x256AB, size: 0x8, addend: 0x0, symName: __ZNSt3__112__to_addressB8ne180100INS_16reverse_iteratorIPlEEvEEu7__decayIDTclsr19__to_address_helperIT_EE6__callclsr3stdE7declvalIRKS4_EEEEES6_, symObjAddr: 0x29ED8, symBinAddr: 0x10002F418, symSize: 0x24 }
  - { offset: 0x256B3, size: 0x8, addend: 0x0, symName: __ZNKSt3__116reverse_iteratorIPlEdeB8ne180100Ev, symObjAddr: 0x29EFC, symBinAddr: 0x10002F43C, symSize: 0x74 }
  - { offset: 0x256F2, size: 0x8, addend: 0x0, symName: __ZNSt3__14moveB8ne180100INS_16reverse_iteratorIPlEES3_EET0_T_S5_S4_, symObjAddr: 0x29FDC, symBinAddr: 0x10002F51C, symSize: 0x4B0 }
  - { offset: 0x256FA, size: 0x8, addend: 0x0, symName: __ZNSt3__119__to_address_helperINS_16reverse_iteratorIPlEEvE6__callB8ne180100ERKS3_, symObjAddr: 0x2A48C, symBinAddr: 0x10002F9CC, symSize: 0x58 }
  - { offset: 0x257AF, size: 0x8, addend: 0x0, symName: __ZNSt3__16__moveB8ne180100INS_17_ClassicAlgPolicyENS_16reverse_iteratorIPlEES4_S4_EENS_4pairIT0_T2_EES6_T1_S7_, symObjAddr: 0x2A508, symBinAddr: 0x10002FA48, symSize: 0x41C }
  - { offset: 0x257B7, size: 0x8, addend: 0x0, symName: __ZNSt3__123__dispatch_copy_or_moveB8ne180100INS_17_ClassicAlgPolicyENS_11__move_loopIS1_EENS_14__move_trivialENS_16reverse_iteratorIPlEES7_S7_EENS_4pairIT2_T4_EES9_T3_SA_, symObjAddr: 0x2A924, symBinAddr: 0x10002FE64, symSize: 0x41C }
  - { offset: 0x2584C, size: 0x8, addend: 0x0, symName: __ZNSt3__123__dispatch_copy_or_moveB8ne180100INS_17_ClassicAlgPolicyENS_11__move_loopIS1_EENS_14__move_trivialENS_16reverse_iteratorIPlEES7_S7_EENS_4pairIT2_T4_EES9_T3_SA_, symObjAddr: 0x2A924, symBinAddr: 0x10002FE64, symSize: 0x41C }
  - { offset: 0x25854, size: 0x8, addend: 0x0, symName: __ZNSt3__121__unwrap_and_dispatchB8ne180100INS_10__overloadINS_11__move_loopINS_17_ClassicAlgPolicyEEENS_14__move_trivialEEENS_16reverse_iteratorIPlEES9_S9_Li0EEENS_4pairIT0_T2_EESB_T1_SC_, symObjAddr: 0x2AD40, symBinAddr: 0x100030280, symSize: 0x880 }
  - { offset: 0x25903, size: 0x8, addend: 0x0, symName: __ZNSt3__121__unwrap_and_dispatchB8ne180100INS_10__overloadINS_11__move_loopINS_17_ClassicAlgPolicyEEENS_14__move_trivialEEENS_16reverse_iteratorIPlEES9_S9_Li0EEENS_4pairIT0_T2_EESB_T1_SC_, symObjAddr: 0x2AD40, symBinAddr: 0x100030280, symSize: 0x880 }
  - { offset: 0x2590B, size: 0x8, addend: 0x0, symName: __ZNSt3__114__unwrap_rangeB8ne180100INS_16reverse_iteratorIPlEES3_EENS_4pairIT0_S5_EET_S7_, symObjAddr: 0x2B5C0, symBinAddr: 0x100030B00, symSize: 0x440 }
  - { offset: 0x259D8, size: 0x8, addend: 0x0, symName: __ZNSt3__114__unwrap_rangeB8ne180100INS_16reverse_iteratorIPlEES3_EENS_4pairIT0_S5_EET_S7_, symObjAddr: 0x2B5C0, symBinAddr: 0x100030B00, symSize: 0x440 }
  - { offset: 0x259E0, size: 0x8, addend: 0x0, symName: __ZNKSt3__111__move_loopINS_17_ClassicAlgPolicyEEclB8ne180100INS_16reverse_iteratorIPlEES6_S6_EENS_4pairIT_T1_EES8_T0_S9_, symObjAddr: 0x2BA00, symBinAddr: 0x100030F40, symSize: 0x398 }
  - { offset: 0x25B4C, size: 0x8, addend: 0x0, symName: __ZNSt3__113__unwrap_iterB8ne180100INS_16reverse_iteratorIPlEENS_18__unwrap_iter_implIS3_Lb0EEELi0EEEDTclsrT0_8__unwrapclsr3stdE7declvalIT_EEEES7_, symObjAddr: 0x2BD98, symBinAddr: 0x1000312D8, symSize: 0x2DC }
  - { offset: 0x25B54, size: 0x8, addend: 0x0, symName: __ZNSt3__19make_pairB8ne180100INS_16reverse_iteratorIPlEES3_EENS_4pairINS_18__unwrap_ref_decayIT_E4typeENS5_IT0_E4typeEEEOS6_OS9_, symObjAddr: 0x2C074, symBinAddr: 0x1000315B4, symSize: 0x38 }
  - { offset: 0x25BAD, size: 0x8, addend: 0x0, symName: __ZNSt3__19make_pairB8ne180100INS_16reverse_iteratorIPlEES3_EENS_4pairINS_18__unwrap_ref_decayIT_E4typeENS5_IT0_E4typeEEEOS6_OS9_, symObjAddr: 0x2C074, symBinAddr: 0x1000315B4, symSize: 0x38 }
  - { offset: 0x25BB5, size: 0x8, addend: 0x0, symName: __ZNSt3__114__rewrap_rangeB8ne180100INS_16reverse_iteratorIPlEES3_EET_S4_T0_, symObjAddr: 0x2C0AC, symBinAddr: 0x1000315EC, symSize: 0x3CC }
  - { offset: 0x25C15, size: 0x8, addend: 0x0, symName: __ZNSt3__114__rewrap_rangeB8ne180100INS_16reverse_iteratorIPlEES3_EET_S4_T0_, symObjAddr: 0x2C0AC, symBinAddr: 0x1000315EC, symSize: 0x3CC }
  - { offset: 0x25C1D, size: 0x8, addend: 0x0, symName: __ZNSt3__113__rewrap_iterB8ne180100INS_16reverse_iteratorIPlEES3_NS_18__unwrap_iter_implIS3_Lb0EEEEET_S6_T0_, symObjAddr: 0x2C478, symBinAddr: 0x1000319B8, symSize: 0x460 }
  - { offset: 0x25C82, size: 0x8, addend: 0x0, symName: __ZNSt3__113__rewrap_iterB8ne180100INS_16reverse_iteratorIPlEES3_NS_18__unwrap_iter_implIS3_Lb0EEEEET_S6_T0_, symObjAddr: 0x2C478, symBinAddr: 0x1000319B8, symSize: 0x460 }
  - { offset: 0x25C8A, size: 0x8, addend: 0x0, symName: __ZNSt3__18_IterOpsINS_17_ClassicAlgPolicyEE11__iter_moveB8ne180100IRNS_16reverse_iteratorIPlEELi0EEEDTclsr3stdE4movedeclsr3stdE7declvalIRT_EEEEOS8_, symObjAddr: 0x2C8D8, symBinAddr: 0x100031E18, symSize: 0x28 }
  - { offset: 0x25D74, size: 0x8, addend: 0x0, symName: __ZNSt3__110__distanceB8ne180100INS_11__wrap_iterIPiEEEENS_15iterator_traitsIT_E15difference_typeES5_S5_NS_26random_access_iterator_tagE, symObjAddr: 0x2D700, symBinAddr: 0x100032C40, symSize: 0x264 }
  - { offset: 0x25D7C, size: 0x8, addend: 0x0, symName: __ZNSt3__1miB8ne180100IPiS1_EENS_11__wrap_iterIT_E15difference_typeERKS4_RKNS2_IT0_EE, symObjAddr: 0x2D964, symBinAddr: 0x100032EA4, symSize: 0x48 }
  - { offset: 0x25DE3, size: 0x8, addend: 0x0, symName: __ZNSt3__1miB8ne180100IPiS1_EENS_11__wrap_iterIT_E15difference_typeERKS4_RKNS2_IT0_EE, symObjAddr: 0x2D964, symBinAddr: 0x100032EA4, symSize: 0x48 }
  - { offset: 0x25DEB, size: 0x8, addend: 0x0, symName: __ZNSt3__16vectorIiNS_9allocatorIiEEE18__insert_with_sizeB8ne180100INS_11__wrap_iterIPiEES7_EES7_NS5_IPKiEET_T0_l, symObjAddr: 0x2D9AC, symBinAddr: 0x100032EEC, symSize: 0xC50 }
  - { offset: 0x25E48, size: 0x8, addend: 0x0, symName: __ZNSt3__1miB8ne180100IPKiPiEENS_11__wrap_iterIT_E15difference_typeERKS6_RKNS4_IT0_EE, symObjAddr: 0x2E5FC, symBinAddr: 0x100033B3C, symSize: 0x48 }
  - { offset: 0x25E50, size: 0x8, addend: 0x0, symName: __ZNSt3__14nextB8ne180100INS_11__wrap_iterIPiEELi0EEET_S4_NS_15iterator_traitsIS4_E15difference_typeE, symObjAddr: 0x2E644, symBinAddr: 0x100033B84, symSize: 0x278 }
  - { offset: 0x25EAD, size: 0x8, addend: 0x0, symName: __ZNSt3__14nextB8ne180100INS_11__wrap_iterIPiEELi0EEET_S4_NS_15iterator_traitsIS4_E15difference_typeE, symObjAddr: 0x2E644, symBinAddr: 0x100033B84, symSize: 0x278 }
  - { offset: 0x25EB5, size: 0x8, addend: 0x0, symName: __ZNSt3__17advanceB8ne180100INS_11__wrap_iterIPiEEllvEEvRT_T0_, symObjAddr: 0x2E8BC, symBinAddr: 0x100033DFC, symSize: 0x38 }
  - { offset: 0x25F14, size: 0x8, addend: 0x0, symName: __ZNSt3__14copyB8ne180100INS_11__wrap_iterIPiEES2_EET0_T_S5_S4_, symObjAddr: 0x2F368, symBinAddr: 0x1000348A8, symSize: 0x3F0 }
  - { offset: 0x25F1C, size: 0x8, addend: 0x0, symName: __ZNSt3__114__split_bufferIiRNS_9allocatorIiEEE28__construct_at_end_with_sizeINS_11__wrap_iterIPiEEEEvT_m, symObjAddr: 0x2F758, symBinAddr: 0x100034C98, symSize: 0x4E0 }
  - { offset: 0x25F95, size: 0x8, addend: 0x0, symName: __ZNSt3__19__advanceB8ne180100INS_11__wrap_iterIPiEEEEvRT_NS_15iterator_traitsIS4_E15difference_typeENS_26random_access_iterator_tagE, symObjAddr: 0x302A8, symBinAddr: 0x1000357E8, symSize: 0x2C }
  - { offset: 0x25F9D, size: 0x8, addend: 0x0, symName: __ZNSt3__130__uninitialized_allocator_copyB8ne180100INS_9allocatorIiEENS_11__wrap_iterIPiEES5_S4_EET2_RT_T0_T1_S6_, symObjAddr: 0x302D4, symBinAddr: 0x100035814, symSize: 0x490 }
  - { offset: 0x25FF3, size: 0x8, addend: 0x0, symName: __ZNSt3__130__uninitialized_allocator_copyB8ne180100INS_9allocatorIiEENS_11__wrap_iterIPiEES5_S4_EET2_RT_T0_T1_S6_, symObjAddr: 0x302D4, symBinAddr: 0x100035814, symSize: 0x490 }
  - { offset: 0x25FFB, size: 0x8, addend: 0x0, symName: __ZNSt3__114__unwrap_rangeB8ne180100INS_11__wrap_iterIPiEES2_EENS_4pairIT0_S5_EET_S7_, symObjAddr: 0x30764, symBinAddr: 0x100035CA4, symSize: 0x4CC }
  - { offset: 0x260D0, size: 0x8, addend: 0x0, symName: __ZNSt3__114__unwrap_rangeB8ne180100INS_11__wrap_iterIPiEES2_EENS_4pairIT0_S5_EET_S7_, symObjAddr: 0x30764, symBinAddr: 0x100035CA4, symSize: 0x4CC }
  - { offset: 0x260D8, size: 0x8, addend: 0x0, symName: __ZNSt3__113__unwrap_iterB8ne180100INS_11__wrap_iterIPiEENS_18__unwrap_iter_implIS3_Lb1EEELi0EEEDTclsrT0_8__unwrapclsr3stdE7declvalIT_EEEES7_, symObjAddr: 0x30C30, symBinAddr: 0x100036170, symSize: 0x264 }
  - { offset: 0x2613D, size: 0x8, addend: 0x0, symName: __ZNSt3__113__unwrap_iterB8ne180100INS_11__wrap_iterIPiEENS_18__unwrap_iter_implIS3_Lb1EEELi0EEEDTclsrT0_8__unwrapclsr3stdE7declvalIT_EEEES7_, symObjAddr: 0x30C30, symBinAddr: 0x100036170, symSize: 0x264 }
  - { offset: 0x26145, size: 0x8, addend: 0x0, symName: __ZNSt3__118__unwrap_iter_implINS_11__wrap_iterIPiEELb1EE8__unwrapB8ne180100ES3_, symObjAddr: 0x30E94, symBinAddr: 0x1000363D4, symSize: 0x1E8 }
  - { offset: 0x26216, size: 0x8, addend: 0x0, symName: __ZNSt3__112__to_addressB8ne180100INS_11__wrap_iterIPiEEvEEu7__decayIDTclsr19__to_address_helperIT_EE6__callclsr3stdE7declvalIRKS4_EEEEES6_, symObjAddr: 0x3107C, symBinAddr: 0x1000365BC, symSize: 0x24 }
  - { offset: 0x2621E, size: 0x8, addend: 0x0, symName: __ZNSt3__119__to_address_helperINS_11__wrap_iterIPiEEvE6__callB8ne180100ERKS3_, symObjAddr: 0x310A0, symBinAddr: 0x1000365E0, symSize: 0x1F8 }
  - { offset: 0x2633E, size: 0x8, addend: 0x0, symName: __ZNSt3__113move_backwardB8ne180100IPiS1_EET0_T_S3_S2_, symObjAddr: 0x31484, symBinAddr: 0x1000369C4, symSize: 0x24C }
  - { offset: 0x26346, size: 0x8, addend: 0x0, symName: __ZNSt3__115__move_backwardB8ne180100INS_17_ClassicAlgPolicyEPiS2_S2_EENS_4pairIT0_T2_EES4_T1_S5_, symObjAddr: 0x316D0, symBinAddr: 0x100036C10, symSize: 0x224 }
  - { offset: 0x263B8, size: 0x8, addend: 0x0, symName: __ZNSt3__115__move_backwardB8ne180100INS_17_ClassicAlgPolicyEPiS2_S2_EENS_4pairIT0_T2_EES4_T1_S5_, symObjAddr: 0x316D0, symBinAddr: 0x100036C10, symSize: 0x224 }
  - { offset: 0x263C0, size: 0x8, addend: 0x0, symName: __ZNSt3__123__dispatch_copy_or_moveB8ne180100INS_17_ClassicAlgPolicyENS_20__move_backward_loopIS1_EENS_23__move_backward_trivialEPiS5_S5_EENS_4pairIT2_T4_EES7_T3_S8_, symObjAddr: 0x318F4, symBinAddr: 0x100036E34, symSize: 0x224 }
  - { offset: 0x2644C, size: 0x8, addend: 0x0, symName: __ZNSt3__123__dispatch_copy_or_moveB8ne180100INS_17_ClassicAlgPolicyENS_20__move_backward_loopIS1_EENS_23__move_backward_trivialEPiS5_S5_EENS_4pairIT2_T4_EES7_T3_S8_, symObjAddr: 0x318F4, symBinAddr: 0x100036E34, symSize: 0x224 }
  - { offset: 0x26454, size: 0x8, addend: 0x0, symName: __ZNSt3__121__unwrap_and_dispatchB8ne180100INS_10__overloadINS_20__move_backward_loopINS_17_ClassicAlgPolicyEEENS_23__move_backward_trivialEEEPiS7_S7_Li0EEENS_4pairIT0_T2_EES9_T1_SA_, symObjAddr: 0x31B18, symBinAddr: 0x100037058, symSize: 0x59C }
  - { offset: 0x264FA, size: 0x8, addend: 0x0, symName: __ZNSt3__121__unwrap_and_dispatchB8ne180100INS_10__overloadINS_20__move_backward_loopINS_17_ClassicAlgPolicyEEENS_23__move_backward_trivialEEEPiS7_S7_Li0EEENS_4pairIT0_T2_EES9_T1_SA_, symObjAddr: 0x31B18, symBinAddr: 0x100037058, symSize: 0x59C }
  - { offset: 0x26502, size: 0x8, addend: 0x0, symName: __ZNKSt3__123__move_backward_trivialclB8ne180100IiiLi0EEENS_4pairIPT_PT0_EES4_S4_S6_, symObjAddr: 0x320B4, symBinAddr: 0x1000375F4, symSize: 0x228 }
  - { offset: 0x2668C, size: 0x8, addend: 0x0, symName: __ZNSt3__128__copy_backward_trivial_implB8ne180100IiiEENS_4pairIPT_PT0_EES3_S3_S5_, symObjAddr: 0x322DC, symBinAddr: 0x10003781C, symSize: 0x3CC }
  - { offset: 0x26694, size: 0x8, addend: 0x0, symName: __ZNSt3__19make_pairB8ne180100IRPiS2_EENS_4pairINS_18__unwrap_ref_decayIT_E4typeENS4_IT0_E4typeEEEOS5_OS8_, symObjAddr: 0x326A8, symBinAddr: 0x100037BE8, symSize: 0x204 }
  - { offset: 0x2671F, size: 0x8, addend: 0x0, symName: __ZNSt3__19make_pairB8ne180100IRPiS2_EENS_4pairINS_18__unwrap_ref_decayIT_E4typeENS4_IT0_E4typeEEEOS5_OS8_, symObjAddr: 0x326A8, symBinAddr: 0x100037BE8, symSize: 0x204 }
  - { offset: 0x26727, size: 0x8, addend: 0x0, symName: __ZNSt3__16__copyB8ne180100INS_17_ClassicAlgPolicyENS_11__wrap_iterIPiEES4_S3_EENS_4pairIT0_T2_EES6_T1_S7_, symObjAddr: 0x328AC, symBinAddr: 0x100037DEC, symSize: 0x3DC }
  - { offset: 0x26789, size: 0x8, addend: 0x0, symName: __ZNSt3__16__copyB8ne180100INS_17_ClassicAlgPolicyENS_11__wrap_iterIPiEES4_S3_EENS_4pairIT0_T2_EES6_T1_S7_, symObjAddr: 0x328AC, symBinAddr: 0x100037DEC, symSize: 0x3DC }
  - { offset: 0x26791, size: 0x8, addend: 0x0, symName: __ZNSt3__123__dispatch_copy_or_moveB8ne180100INS_17_ClassicAlgPolicyENS_11__copy_loopIS1_EENS_14__copy_trivialENS_11__wrap_iterIPiEES7_S6_EENS_4pairIT2_T4_EES9_T3_SA_, symObjAddr: 0x32C88, symBinAddr: 0x1000381C8, symSize: 0x3DC }
  - { offset: 0x26823, size: 0x8, addend: 0x0, symName: __ZNSt3__123__dispatch_copy_or_moveB8ne180100INS_17_ClassicAlgPolicyENS_11__copy_loopIS1_EENS_14__copy_trivialENS_11__wrap_iterIPiEES7_S6_EENS_4pairIT2_T4_EES9_T3_SA_, symObjAddr: 0x32C88, symBinAddr: 0x1000381C8, symSize: 0x3DC }
  - { offset: 0x2682B, size: 0x8, addend: 0x0, symName: __ZNSt3__121__unwrap_and_dispatchB8ne180100INS_10__overloadINS_11__copy_loopINS_17_ClassicAlgPolicyEEENS_14__copy_trivialEEENS_11__wrap_iterIPiEES9_S8_Li0EEENS_4pairIT0_T2_EESB_T1_SC_, symObjAddr: 0x33064, symBinAddr: 0x1000385A4, symSize: 0x768 }
  - { offset: 0x268D7, size: 0x8, addend: 0x0, symName: __ZNSt3__121__unwrap_and_dispatchB8ne180100INS_10__overloadINS_11__copy_loopINS_17_ClassicAlgPolicyEEENS_14__copy_trivialEEENS_11__wrap_iterIPiEES9_S8_Li0EEENS_4pairIT0_T2_EESB_T1_SC_, symObjAddr: 0x33064, symBinAddr: 0x1000385A4, symSize: 0x768 }
  - { offset: 0x268DF, size: 0x8, addend: 0x0, symName: __ZNSt3__19make_pairB8ne180100INS_11__wrap_iterIPiEES2_EENS_4pairINS_18__unwrap_ref_decayIT_E4typeENS5_IT0_E4typeEEEOS6_OS9_, symObjAddr: 0x337CC, symBinAddr: 0x100038D0C, symSize: 0x204 }
  - { offset: 0x269A9, size: 0x8, addend: 0x0, symName: __ZNSt3__19make_pairB8ne180100INS_11__wrap_iterIPiEES2_EENS_4pairINS_18__unwrap_ref_decayIT_E4typeENS5_IT0_E4typeEEEOS6_OS9_, symObjAddr: 0x337CC, symBinAddr: 0x100038D0C, symSize: 0x204 }
  - { offset: 0x269B1, size: 0x8, addend: 0x0, symName: __ZNSt3__114__rewrap_rangeB8ne180100INS_11__wrap_iterIPiEES2_EET_S4_T0_, symObjAddr: 0x339D0, symBinAddr: 0x100038F10, symSize: 0x314 }
  - { offset: 0x26A13, size: 0x8, addend: 0x0, symName: __ZNSt3__114__rewrap_rangeB8ne180100INS_11__wrap_iterIPiEES2_EET_S4_T0_, symObjAddr: 0x339D0, symBinAddr: 0x100038F10, symSize: 0x314 }
  - { offset: 0x26A1B, size: 0x8, addend: 0x0, symName: __ZNSt3__14pairINS_11__wrap_iterIPiEES2_EC1B8ne180100ERKS3_RKS2_, symObjAddr: 0x33CE4, symBinAddr: 0x100039224, symSize: 0x3C }
  - { offset: 0x26B84, size: 0x8, addend: 0x0, symName: __ZNSt3__113__rewrap_iterB8ne180100INS_11__wrap_iterIPiEES2_NS_18__unwrap_iter_implIS3_Lb1EEEEET_S6_T0_, symObjAddr: 0x33DE8, symBinAddr: 0x100039328, symSize: 0x3A4 }
  - { offset: 0x26B8C, size: 0x8, addend: 0x0, symName: __ZNSt3__118__unwrap_iter_implINS_11__wrap_iterIPiEELb1EE8__rewrapB8ne180100ES3_S2_, symObjAddr: 0x3418C, symBinAddr: 0x1000396CC, symSize: 0x2C4 }
  - { offset: 0x26BFB, size: 0x8, addend: 0x0, symName: __ZNSt3__142__uninitialized_allocator_move_if_noexceptB8ne180100INS_9allocatorIiEEPiS3_ivEET1_RT_T0_S7_S4_, symObjAddr: 0x3471C, symBinAddr: 0x100039C5C, symSize: 0xA4 }
  - { offset: 0x26C03, size: 0x8, addend: 0x0, symName: __ZNSt3__14moveB8ne180100IPiS1_EET0_T_S3_S2_, symObjAddr: 0x347C0, symBinAddr: 0x100039D00, symSize: 0x24C }
  - { offset: 0x26CA0, size: 0x8, addend: 0x0, symName: __ZNSt3__14moveB8ne180100IPiS1_EET0_T_S3_S2_, symObjAddr: 0x347C0, symBinAddr: 0x100039D00, symSize: 0x24C }
  - { offset: 0x26CA8, size: 0x8, addend: 0x0, symName: __ZNSt3__16__moveB8ne180100INS_17_ClassicAlgPolicyEPiS2_S2_EENS_4pairIT0_T2_EES4_T1_S5_, symObjAddr: 0x34A0C, symBinAddr: 0x100039F4C, symSize: 0x224 }
  - { offset: 0x26D1A, size: 0x8, addend: 0x0, symName: __ZNSt3__16__moveB8ne180100INS_17_ClassicAlgPolicyEPiS2_S2_EENS_4pairIT0_T2_EES4_T1_S5_, symObjAddr: 0x34A0C, symBinAddr: 0x100039F4C, symSize: 0x224 }
  - { offset: 0x26D22, size: 0x8, addend: 0x0, symName: __ZNSt3__123__dispatch_copy_or_moveB8ne180100INS_17_ClassicAlgPolicyENS_11__move_loopIS1_EENS_14__move_trivialEPiS5_S5_EENS_4pairIT2_T4_EES7_T3_S8_, symObjAddr: 0x34C30, symBinAddr: 0x10003A170, symSize: 0x224 }
  - { offset: 0x26DAE, size: 0x8, addend: 0x0, symName: __ZNSt3__123__dispatch_copy_or_moveB8ne180100INS_17_ClassicAlgPolicyENS_11__move_loopIS1_EENS_14__move_trivialEPiS5_S5_EENS_4pairIT2_T4_EES7_T3_S8_, symObjAddr: 0x34C30, symBinAddr: 0x10003A170, symSize: 0x224 }
  - { offset: 0x26DB6, size: 0x8, addend: 0x0, symName: __ZNSt3__121__unwrap_and_dispatchB8ne180100INS_10__overloadINS_11__move_loopINS_17_ClassicAlgPolicyEEENS_14__move_trivialEEEPiS7_S7_Li0EEENS_4pairIT0_T2_EES9_T1_SA_, symObjAddr: 0x34E54, symBinAddr: 0x10003A394, symSize: 0x59C }
  - { offset: 0x26E5C, size: 0x8, addend: 0x0, symName: __ZNSt3__121__unwrap_and_dispatchB8ne180100INS_10__overloadINS_11__move_loopINS_17_ClassicAlgPolicyEEENS_14__move_trivialEEEPiS7_S7_Li0EEENS_4pairIT0_T2_EES9_T1_SA_, symObjAddr: 0x34E54, symBinAddr: 0x10003A394, symSize: 0x59C }
  - { offset: 0x26E64, size: 0x8, addend: 0x0, symName: __ZNKSt3__114__move_trivialclB8ne180100IiiLi0EEENS_4pairIPT_PT0_EES4_S4_S6_, symObjAddr: 0x353F0, symBinAddr: 0x10003A930, symSize: 0x228 }
  - { offset: 0x26FEE, size: 0x8, addend: 0x0, symName: __ZNSt3__1miB8ne180100IPKiS2_EENS_11__wrap_iterIT_E15difference_typeERKS5_RKNS3_IT0_EE, symObjAddr: 0x35914, symBinAddr: 0x10003AE54, symSize: 0x48 }
  - { offset: 0x26FF6, size: 0x8, addend: 0x0, symName: __ZNSt3__111__wrap_iterIPlEppB8ne180100Ev, symObjAddr: 0x3595C, symBinAddr: 0x10003AE9C, symSize: 0x68 }
  - { offset: 0x27053, size: 0x8, addend: 0x0, symName: __ZNSt3__113__rewrap_iterB8ne180100INS_11__wrap_iterIPlEES2_NS_18__unwrap_iter_implIS3_Lb1EEEEET_S6_T0_, symObjAddr: 0x35C5C, symBinAddr: 0x10003B19C, symSize: 0x3A4 }
  - { offset: 0x2705B, size: 0x8, addend: 0x0, symName: __ZNSt3__111__find_implB8ne180100IliNS_10__identityELi0EEEPT_S3_S3_RKT0_RT1_, symObjAddr: 0x36000, symBinAddr: 0x10003B540, symSize: 0x3B0 }
  - { offset: 0x270CA, size: 0x8, addend: 0x0, symName: __ZNSt3__111__find_implB8ne180100IliNS_10__identityELi0EEEPT_S3_S3_RKT0_RT1_, symObjAddr: 0x36000, symBinAddr: 0x10003B540, symSize: 0x3B0 }
  - { offset: 0x270D2, size: 0x8, addend: 0x0, symName: __ZNSt3__113__unwrap_iterB8ne180100INS_11__wrap_iterIPlEENS_18__unwrap_iter_implIS3_Lb1EEELi0EEEDTclsrT0_8__unwrapclsr3stdE7declvalIT_EEEES7_, symObjAddr: 0x363B0, symBinAddr: 0x10003B8F0, symSize: 0x264 }
  - { offset: 0x2716E, size: 0x8, addend: 0x0, symName: __ZNSt3__113__unwrap_iterB8ne180100INS_11__wrap_iterIPlEENS_18__unwrap_iter_implIS3_Lb1EEELi0EEEDTclsrT0_8__unwrapclsr3stdE7declvalIT_EEEES7_, symObjAddr: 0x363B0, symBinAddr: 0x10003B8F0, symSize: 0x264 }
  - { offset: 0x27176, size: 0x8, addend: 0x0, symName: __ZNSt3__118__unwrap_iter_implINS_11__wrap_iterIPlEELb1EE8__rewrapB8ne180100ES3_S2_, symObjAddr: 0x36614, symBinAddr: 0x10003BB54, symSize: 0x2C4 }
  - { offset: 0x27247, size: 0x8, addend: 0x0, symName: __ZNSt3__112__to_addressB8ne180100INS_11__wrap_iterIPlEEvEEu7__decayIDTclsr19__to_address_helperIT_EE6__callclsr3stdE7declvalIRKS4_EEEEES6_, symObjAddr: 0x368D8, symBinAddr: 0x10003BE18, symSize: 0x24 }
  - { offset: 0x2724F, size: 0x8, addend: 0x0, symName: __ZNSt3__119__to_address_helperINS_11__wrap_iterIPlEEvE6__callB8ne180100ERKS3_, symObjAddr: 0x368FC, symBinAddr: 0x10003BE3C, symSize: 0x1F8 }
  - { offset: 0x2736F, size: 0x8, addend: 0x0, symName: __ZNSt3__111__find_implB8ne180100IPlS1_lNS_10__identityEEET_S3_T0_RKT1_RT2_, symObjAddr: 0x36D54, symBinAddr: 0x10003C294, symSize: 0x108 }
  - { offset: 0x27377, size: 0x8, addend: 0x0, symName: __ZNSt3__123__libcpp_numeric_limitsIlLb1EE3minB8ne180100Ev, symObjAddr: 0x36E5C, symBinAddr: 0x10003C39C, symSize: 0x8 }
  - { offset: 0x27412, size: 0x8, addend: 0x0, symName: __ZNSt3__18__invokeB8ne180100IRNS_10__identityEJRlEEEDTclclsr3stdE7declvalIT_EEspclsr3stdE7declvalIT0_EEEEOS4_DpOS5_, symObjAddr: 0x36E64, symBinAddr: 0x10003C3A4, symSize: 0x2C }
  - { offset: 0x2741A, size: 0x8, addend: 0x0, symName: __ZNKSt3__110__identityclB8ne180100IRlEEOT_S4_, symObjAddr: 0x36E90, symBinAddr: 0x10003C3D0, symSize: 0x18 }
  - { offset: 0x274BC, size: 0x8, addend: 0x0, symName: __ZNSt3__112__to_addressB8ne180100IPiEEPT_S3_, symObjAddr: 0x3922C, symBinAddr: 0x10003E76C, symSize: 0x14 }
  - { offset: 0x274C4, size: 0x8, addend: 0x0, symName: __ZNSt3__19allocatorIPiE7destroyB8ne180100EPS1_, symObjAddr: 0x39240, symBinAddr: 0x10003E780, symSize: 0x14 }
  - { offset: 0x27AA8, size: 0x8, addend: 0x0, symName: __ZNSt3__14swapB8ne180100IPPiEEvRT_S4_, symObjAddr: 0x3E8CC, symBinAddr: 0x100043E0C, symSize: 0x134 }
  - { offset: 0x27AB0, size: 0x8, addend: 0x0, symName: __ZNSt3__114__split_bufferIPiNS_9allocatorIS1_EEE9__end_capB8ne180100Ev, symObjAddr: 0x3EA00, symBinAddr: 0x100043F40, symSize: 0x28 }
  - { offset: 0x27B12, size: 0x8, addend: 0x0, symName: __ZNSt3__14moveB8ne180100IPPiS2_EET0_T_S4_S3_, symObjAddr: 0x3EAA8, symBinAddr: 0x100043FE8, symSize: 0x24C }
  - { offset: 0x27B1A, size: 0x8, addend: 0x0, symName: __ZNSt3__114__split_bufferIPiRNS_9allocatorIS1_EEE18__construct_at_endINS_13move_iteratorIPS1_EELi0EEEvT_SA_, symObjAddr: 0x3ECF4, symBinAddr: 0x100044234, symSize: 0x3CC }
  - { offset: 0x27B8C, size: 0x8, addend: 0x0, symName: __ZNSt3__16__moveB8ne180100INS_17_ClassicAlgPolicyEPPiS3_S3_EENS_4pairIT0_T2_EES5_T1_S6_, symObjAddr: 0x3F128, symBinAddr: 0x100044668, symSize: 0x224 }
  - { offset: 0x27B94, size: 0x8, addend: 0x0, symName: __ZNSt3__123__dispatch_copy_or_moveB8ne180100INS_17_ClassicAlgPolicyENS_11__move_loopIS1_EENS_14__move_trivialEPPiS6_S6_EENS_4pairIT2_T4_EES8_T3_S9_, symObjAddr: 0x3F34C, symBinAddr: 0x10004488C, symSize: 0x224 }
  - { offset: 0x27C20, size: 0x8, addend: 0x0, symName: __ZNSt3__123__dispatch_copy_or_moveB8ne180100INS_17_ClassicAlgPolicyENS_11__move_loopIS1_EENS_14__move_trivialEPPiS6_S6_EENS_4pairIT2_T4_EES8_T3_S9_, symObjAddr: 0x3F34C, symBinAddr: 0x10004488C, symSize: 0x224 }
  - { offset: 0x27C28, size: 0x8, addend: 0x0, symName: __ZNSt3__121__unwrap_and_dispatchB8ne180100INS_10__overloadINS_11__move_loopINS_17_ClassicAlgPolicyEEENS_14__move_trivialEEEPPiS8_S8_Li0EEENS_4pairIT0_T2_EESA_T1_SB_, symObjAddr: 0x3F570, symBinAddr: 0x100044AB0, symSize: 0x59C }
  - { offset: 0x27CCE, size: 0x8, addend: 0x0, symName: __ZNSt3__121__unwrap_and_dispatchB8ne180100INS_10__overloadINS_11__move_loopINS_17_ClassicAlgPolicyEEENS_14__move_trivialEEEPPiS8_S8_Li0EEENS_4pairIT0_T2_EESA_T1_SB_, symObjAddr: 0x3F570, symBinAddr: 0x100044AB0, symSize: 0x59C }
  - { offset: 0x27CD6, size: 0x8, addend: 0x0, symName: __ZNSt3__114__unwrap_rangeB8ne180100IPPiS2_EENS_4pairIT0_S4_EET_S6_, symObjAddr: 0x3FB0C, symBinAddr: 0x10004504C, symSize: 0x340 }
  - { offset: 0x27D98, size: 0x8, addend: 0x0, symName: __ZNSt3__114__unwrap_rangeB8ne180100IPPiS2_EENS_4pairIT0_S4_EET_S6_, symObjAddr: 0x3FB0C, symBinAddr: 0x10004504C, symSize: 0x340 }
  - { offset: 0x27DA0, size: 0x8, addend: 0x0, symName: __ZNKSt3__114__move_trivialclB8ne180100IPiS2_Li0EEENS_4pairIPT_PT0_EES5_S5_S7_, symObjAddr: 0x3FE4C, symBinAddr: 0x10004538C, symSize: 0x228 }
  - { offset: 0x27F06, size: 0x8, addend: 0x0, symName: __ZNSt3__113__unwrap_iterB8ne180100IPPiNS_18__unwrap_iter_implIS2_Lb1EEELi0EEEDTclsrT0_8__unwrapclsr3stdE7declvalIT_EEEES6_, symObjAddr: 0x40074, symBinAddr: 0x1000455B4, symSize: 0x24 }
  - { offset: 0x27F0E, size: 0x8, addend: 0x0, symName: __ZNSt3__19make_pairB8ne180100IPPiS2_EENS_4pairINS_18__unwrap_ref_decayIT_E4typeENS4_IT0_E4typeEEEOS5_OS8_, symObjAddr: 0x40098, symBinAddr: 0x1000455D8, symSize: 0x204 }
  - { offset: 0x27F63, size: 0x8, addend: 0x0, symName: __ZNSt3__19make_pairB8ne180100IPPiS2_EENS_4pairINS_18__unwrap_ref_decayIT_E4typeENS4_IT0_E4typeEEEOS5_OS8_, symObjAddr: 0x40098, symBinAddr: 0x1000455D8, symSize: 0x204 }
  - { offset: 0x27F6B, size: 0x8, addend: 0x0, symName: __ZNSt3__114__rewrap_rangeB8ne180100IPPiS2_EET_S3_T0_, symObjAddr: 0x4029C, symBinAddr: 0x1000457DC, symSize: 0x2C }
  - { offset: 0x27FCD, size: 0x8, addend: 0x0, symName: __ZNSt3__114__rewrap_rangeB8ne180100IPPiS2_EET_S3_T0_, symObjAddr: 0x4029C, symBinAddr: 0x1000457DC, symSize: 0x2C }
  - { offset: 0x27FD5, size: 0x8, addend: 0x0, symName: __ZNSt3__113__rewrap_iterB8ne180100IPPiS2_NS_18__unwrap_iter_implIS2_Lb1EEEEET_S5_T0_, symObjAddr: 0x402C8, symBinAddr: 0x100045808, symSize: 0x5C }
  - { offset: 0x28032, size: 0x8, addend: 0x0, symName: __ZNSt3__113__rewrap_iterB8ne180100IPPiS2_NS_18__unwrap_iter_implIS2_Lb1EEEEET_S5_T0_, symObjAddr: 0x402C8, symBinAddr: 0x100045808, symSize: 0x5C }
  - { offset: 0x2803A, size: 0x8, addend: 0x0, symName: __ZNSt3__119__copy_trivial_implB8ne180100IPiS1_EENS_4pairIPT_PT0_EES4_S4_S6_, symObjAddr: 0x40324, symBinAddr: 0x100045864, symSize: 0x3A4 }
  - { offset: 0x280A4, size: 0x8, addend: 0x0, symName: __ZNSt3__119__copy_trivial_implB8ne180100IPiS1_EENS_4pairIPT_PT0_EES4_S4_S6_, symObjAddr: 0x40324, symBinAddr: 0x100045864, symSize: 0x3A4 }
  - { offset: 0x280AC, size: 0x8, addend: 0x0, symName: __ZNSt3__119__constexpr_memmoveB8ne180100IPiS1_Li0EEEPT_S3_PT0_NS_15__element_countE, symObjAddr: 0x406C8, symBinAddr: 0x100045C08, symSize: 0xB0 }
  - { offset: 0x28134, size: 0x8, addend: 0x0, symName: __ZNSt3__119__constexpr_memmoveB8ne180100IPiS1_Li0EEEPT_S3_PT0_NS_15__element_countE, symObjAddr: 0x406C8, symBinAddr: 0x100045C08, symSize: 0xB0 }
  - { offset: 0x2813C, size: 0x8, addend: 0x0, symName: __ZNSt3__19make_pairB8ne180100IRPPiS2_EENS_4pairINS_18__unwrap_ref_decayIT_E4typeENS5_IT0_E4typeEEEOS6_OS9_, symObjAddr: 0x40778, symBinAddr: 0x100045CB8, symSize: 0x204 }
  - { offset: 0x281C7, size: 0x8, addend: 0x0, symName: __ZNSt3__19make_pairB8ne180100IRPPiS2_EENS_4pairINS_18__unwrap_ref_decayIT_E4typeENS5_IT0_E4typeEEEOS6_OS9_, symObjAddr: 0x40778, symBinAddr: 0x100045CB8, symSize: 0x204 }
  - { offset: 0x281CF, size: 0x8, addend: 0x0, symName: __ZNSt3__14pairIPPiS2_EC1B8ne180100ERKS2_S5_, symObjAddr: 0x4097C, symBinAddr: 0x100045EBC, symSize: 0x3C }
  - { offset: 0x282A9, size: 0x8, addend: 0x0, symName: __ZNSt3__18distanceB8ne180100INS_13move_iteratorIPPiEEEENS_15iterator_traitsIT_E15difference_typeES6_S6_, symObjAddr: 0x41050, symBinAddr: 0x100046590, symSize: 0x348 }
  - { offset: 0x282B1, size: 0x8, addend: 0x0, symName: __ZNSt3__114__split_bufferIPiRNS_9allocatorIS1_EEE21_ConstructTransactionC1B8ne180100EPPS1_m, symObjAddr: 0x41398, symBinAddr: 0x1000468D8, symSize: 0x3C }
  - { offset: 0x28309, size: 0x8, addend: 0x0, symName: __ZNSt3__110__distanceB8ne180100INS_13move_iteratorIPPiEEEENS_15iterator_traitsIT_E15difference_typeES6_S6_NS_26random_access_iterator_tagE, symObjAddr: 0x418C4, symBinAddr: 0x100046E04, symSize: 0x264 }
  - { offset: 0x28311, size: 0x8, addend: 0x0, symName: __ZNSt3__1miB8ne180100IPPiS2_EENS_13move_iteratorIT_E15difference_typeERKS5_RKNS3_IT0_EE, symObjAddr: 0x41B28, symBinAddr: 0x100047068, symSize: 0x48 }
  - { offset: 0x28378, size: 0x8, addend: 0x0, symName: __ZNSt3__1miB8ne180100IPPiS2_EENS_13move_iteratorIT_E15difference_typeERKS5_RKNS3_IT0_EE, symObjAddr: 0x41B28, symBinAddr: 0x100047068, symSize: 0x48 }
  - { offset: 0x28380, size: 0x8, addend: 0x0, symName: __ZNKSt3__113move_iteratorIPPiE4baseB8ne180100Ev, symObjAddr: 0x41B70, symBinAddr: 0x1000470B0, symSize: 0x60 }
  - { offset: 0x283E0, size: 0x8, addend: 0x0, symName: __ZNSt3__113move_backwardB8ne180100IPPiS2_EET0_T_S4_S3_, symObjAddr: 0x41CF4, symBinAddr: 0x100047234, symSize: 0x24C }
  - { offset: 0x283E8, size: 0x8, addend: 0x0, symName: __ZNSt3__115__move_backwardB8ne180100INS_17_ClassicAlgPolicyEPPiS3_S3_EENS_4pairIT0_T2_EES5_T1_S6_, symObjAddr: 0x41F40, symBinAddr: 0x100047480, symSize: 0x224 }
  - { offset: 0x2845A, size: 0x8, addend: 0x0, symName: __ZNSt3__115__move_backwardB8ne180100INS_17_ClassicAlgPolicyEPPiS3_S3_EENS_4pairIT0_T2_EES5_T1_S6_, symObjAddr: 0x41F40, symBinAddr: 0x100047480, symSize: 0x224 }
  - { offset: 0x28462, size: 0x8, addend: 0x0, symName: __ZNSt3__123__dispatch_copy_or_moveB8ne180100INS_17_ClassicAlgPolicyENS_20__move_backward_loopIS1_EENS_23__move_backward_trivialEPPiS6_S6_EENS_4pairIT2_T4_EES8_T3_S9_, symObjAddr: 0x42164, symBinAddr: 0x1000476A4, symSize: 0x224 }
  - { offset: 0x284EE, size: 0x8, addend: 0x0, symName: __ZNSt3__123__dispatch_copy_or_moveB8ne180100INS_17_ClassicAlgPolicyENS_20__move_backward_loopIS1_EENS_23__move_backward_trivialEPPiS6_S6_EENS_4pairIT2_T4_EES8_T3_S9_, symObjAddr: 0x42164, symBinAddr: 0x1000476A4, symSize: 0x224 }
  - { offset: 0x284F6, size: 0x8, addend: 0x0, symName: __ZNSt3__121__unwrap_and_dispatchB8ne180100INS_10__overloadINS_20__move_backward_loopINS_17_ClassicAlgPolicyEEENS_23__move_backward_trivialEEEPPiS8_S8_Li0EEENS_4pairIT0_T2_EESA_T1_SB_, symObjAddr: 0x42388, symBinAddr: 0x1000478C8, symSize: 0x59C }
  - { offset: 0x2859C, size: 0x8, addend: 0x0, symName: __ZNSt3__121__unwrap_and_dispatchB8ne180100INS_10__overloadINS_20__move_backward_loopINS_17_ClassicAlgPolicyEEENS_23__move_backward_trivialEEEPPiS8_S8_Li0EEENS_4pairIT0_T2_EESA_T1_SB_, symObjAddr: 0x42388, symBinAddr: 0x1000478C8, symSize: 0x59C }
  - { offset: 0x285A4, size: 0x8, addend: 0x0, symName: __ZNKSt3__123__move_backward_trivialclB8ne180100IPiS2_Li0EEENS_4pairIPT_PT0_EES5_S5_S7_, symObjAddr: 0x42924, symBinAddr: 0x100047E64, symSize: 0x228 }
  - { offset: 0x28666, size: 0x8, addend: 0x0, symName: __ZNSt3__128__copy_backward_trivial_implB8ne180100IPiS1_EENS_4pairIPT_PT0_EES4_S4_S6_, symObjAddr: 0x42B4C, symBinAddr: 0x10004808C, symSize: 0x3CC }
  - { offset: 0x2866E, size: 0x8, addend: 0x0, symName: __ZNSt3__19make_pairB8ne180100IRPPiS3_EENS_4pairINS_18__unwrap_ref_decayIT_E4typeENS5_IT0_E4typeEEEOS6_OS9_, symObjAddr: 0x42F18, symBinAddr: 0x100048458, symSize: 0x204 }
  - { offset: 0x286F9, size: 0x8, addend: 0x0, symName: __ZNSt3__19make_pairB8ne180100IRPPiS3_EENS_4pairINS_18__unwrap_ref_decayIT_E4typeENS5_IT0_E4typeEEEOS6_OS9_, symObjAddr: 0x42F18, symBinAddr: 0x100048458, symSize: 0x204 }
  - { offset: 0x28701, size: 0x8, addend: 0x0, symName: __ZNSt3__114__split_bufferIPiRNS_9allocatorIS1_EEEC2EmmS4_, symObjAddr: 0x4311C, symBinAddr: 0x10004865C, symSize: 0x510 }
  - { offset: 0x28763, size: 0x8, addend: 0x0, symName: __ZNSt3__119__allocate_at_leastB8ne180100INS_9allocatorIPiEEEENS_19__allocation_resultINS_16allocator_traitsIT_E7pointerEEERS6_m, symObjAddr: 0x43668, symBinAddr: 0x100048BA8, symSize: 0x284 }
  - { offset: 0x2876B, size: 0x8, addend: 0x0, symName: __ZNSt3__117__compressed_pairIPPiRNS_9allocatorIS1_EEEC2B8ne180100IDnS5_EEOT_OT0_, symObjAddr: 0x438EC, symBinAddr: 0x100048E2C, symSize: 0x48 }
  - { offset: 0x287BD, size: 0x8, addend: 0x0, symName: __ZNSt3__1eqB8ne180100ERKNS_16__deque_iteratorIiPKiRS1_PKS2_lLl1024EEES8_, symObjAddr: 0x44714, symBinAddr: 0x100049C54, symSize: 0xC0 }
  - { offset: 0x287C5, size: 0x8, addend: 0x0, symName: __ZNSt3__116__deque_iteratorIiPKiRS1_PKS2_lLl1024EEppB8ne180100Ev, symObjAddr: 0x447D4, symBinAddr: 0x100049D14, symSize: 0x1F8 }
  - { offset: 0x2880B, size: 0x8, addend: 0x0, symName: __ZNSt3__18distanceB8ne180100INS_16__deque_iteratorIiPKiRS2_PKS3_lLl1024EEEEENS_15iterator_traitsIT_E15difference_typeES9_S9_, symObjAddr: 0x4618C, symBinAddr: 0x10004B6CC, symSize: 0x354 }
  - { offset: 0x28813, size: 0x8, addend: 0x0, symName: __ZNSt3__15dequeIiNS_9allocatorIiEEE19__add_back_capacityEm, symObjAddr: 0x464E0, symBinAddr: 0x10004BA20, symSize: 0x14C8 }
  - { offset: 0x2886B, size: 0x8, addend: 0x0, symName: __ZNSt3__1neB8ne180100ERKNS_5dequeIiNS_9allocatorIiEEE13__deque_rangeES6_, symObjAddr: 0x48178, symBinAddr: 0x10004D6B8, symSize: 0x34 }
  - { offset: 0x28873, size: 0x8, addend: 0x0, symName: __ZNKSt3__15dequeIiNS_9allocatorIiEEE13__deque_rangedeB8ne180100Ev, symObjAddr: 0x481AC, symBinAddr: 0x10004D6EC, symSize: 0x3C4 }
  - { offset: 0x288B9, size: 0x8, addend: 0x0, symName: __ZNSt3__1eqB8ne180100ERKNS_5dequeIiNS_9allocatorIiEEE13__deque_rangeES6_, symObjAddr: 0x49A28, symBinAddr: 0x10004EF68, symSize: 0x30 }
  - { offset: 0x288C1, size: 0x8, addend: 0x0, symName: __ZNSt3__1eqB8ne180100ERKNS_16__deque_iteratorIiPiRiPS1_lLl1024EEES6_, symObjAddr: 0x49A58, symBinAddr: 0x10004EF98, symSize: 0xC0 }
  - { offset: 0x28907, size: 0x8, addend: 0x0, symName: __ZNSt3__1eqB8ne180100ERKNS_16__deque_iteratorIiPiRiPS1_lLl1024EEES6_, symObjAddr: 0x49A58, symBinAddr: 0x10004EF98, symSize: 0xC0 }
  - { offset: 0x2890F, size: 0x8, addend: 0x0, symName: __ZNSt3__15dequeIiNS_9allocatorIiEEE19__deque_block_rangeC1B8ne180100EPiS5_, symObjAddr: 0x49B18, symBinAddr: 0x10004F058, symSize: 0x3C }
  - { offset: 0x28955, size: 0x8, addend: 0x0, symName: __ZNSt3__110__distanceB8ne180100INS_16__deque_iteratorIiPKiRS2_PKS3_lLl1024EEEEENS_15iterator_traitsIT_E15difference_typeES9_S9_NS_26random_access_iterator_tagE, symObjAddr: 0x49F4C, symBinAddr: 0x10004F48C, symSize: 0x268 }
  - { offset: 0x2895D, size: 0x8, addend: 0x0, symName: __ZNSt3__1miB8ne180100ERKNS_16__deque_iteratorIiPKiRS1_PKS2_lLl1024EEES8_, symObjAddr: 0x4A1B4, symBinAddr: 0x10004F6F4, symSize: 0x28C }
  - { offset: 0x289C4, size: 0x8, addend: 0x0, symName: __ZNSt3__1miB8ne180100ERKNS_16__deque_iteratorIiPKiRS1_PKS2_lLl1024EEES8_, symObjAddr: 0x4A1B4, symBinAddr: 0x10004F6F4, symSize: 0x28C }
  - { offset: 0x289CC, size: 0x8, addend: 0x0, symName: __ZNSt3__15dequeIiNS_9allocatorIiEEE19__copy_assign_allocB8ne180100ERKS3_, symObjAddr: 0x4A440, symBinAddr: 0x10004F980, symSize: 0x2C }
  - { offset: 0x28A12, size: 0x8, addend: 0x0, symName: __ZNSt3__14copyB8ne180100INS_16__deque_iteratorIiPKiRS2_PKS3_lLl1024EEENS1_IiPiRiPS8_lLl1024EEEEET0_T_SD_SC_, symObjAddr: 0x4B048, symBinAddr: 0x100050588, symSize: 0x4B0 }
  - { offset: 0x28A1A, size: 0x8, addend: 0x0, symName: __ZNSt3__15dequeIiNS_9allocatorIiEEE14__erase_to_endENS_16__deque_iteratorIiPKiRS5_PKS6_lLl1024EEE, symObjAddr: 0x4B4F8, symBinAddr: 0x100050A38, symSize: 0x588 }
  - { offset: 0x28A96, size: 0x8, addend: 0x0, symName: __ZNSt3__16__copyB8ne180100INS_17_ClassicAlgPolicyENS_16__deque_iteratorIiPKiRS3_PKS4_lLl1024EEES8_NS2_IiPiRiPS9_lLl1024EEEEENS_4pairIT0_T2_EESE_T1_SF_, symObjAddr: 0x4C2C8, symBinAddr: 0x100051808, symSize: 0x41C }
  - { offset: 0x28A9E, size: 0x8, addend: 0x0, symName: __ZNSt3__123__dispatch_copy_or_moveB8ne180100INS_17_ClassicAlgPolicyENS_11__copy_loopIS1_EENS_14__copy_trivialENS_16__deque_iteratorIiPKiRS6_PKS7_lLl1024EEESB_NS5_IiPiRiPSC_lLl1024EEEEENS_4pairIT2_T4_EESH_T3_SI_, symObjAddr: 0x4C6E4, symBinAddr: 0x100051C24, symSize: 0x41C }
  - { offset: 0x28B33, size: 0x8, addend: 0x0, symName: __ZNSt3__123__dispatch_copy_or_moveB8ne180100INS_17_ClassicAlgPolicyENS_11__copy_loopIS1_EENS_14__copy_trivialENS_16__deque_iteratorIiPKiRS6_PKS7_lLl1024EEESB_NS5_IiPiRiPSC_lLl1024EEEEENS_4pairIT2_T4_EESH_T3_SI_, symObjAddr: 0x4C6E4, symBinAddr: 0x100051C24, symSize: 0x41C }
  - { offset: 0x28B3B, size: 0x8, addend: 0x0, symName: __ZNSt3__121__unwrap_and_dispatchB8ne180100INS_10__overloadINS_11__copy_loopINS_17_ClassicAlgPolicyEEENS_14__copy_trivialEEENS_16__deque_iteratorIiPKiRS8_PKS9_lLl1024EEESD_NS7_IiPiRiPSE_lLl1024EEELi0EEENS_4pairIT0_T2_EESJ_T1_SK_, symObjAddr: 0x4CB00, symBinAddr: 0x100052040, symSize: 0x880 }
  - { offset: 0x28BEA, size: 0x8, addend: 0x0, symName: __ZNSt3__121__unwrap_and_dispatchB8ne180100INS_10__overloadINS_11__copy_loopINS_17_ClassicAlgPolicyEEENS_14__copy_trivialEEENS_16__deque_iteratorIiPKiRS8_PKS9_lLl1024EEESD_NS7_IiPiRiPSE_lLl1024EEELi0EEENS_4pairIT0_T2_EESJ_T1_SK_, symObjAddr: 0x4CB00, symBinAddr: 0x100052040, symSize: 0x880 }
  - { offset: 0x28BF2, size: 0x8, addend: 0x0, symName: __ZNSt3__114__unwrap_rangeB8ne180100INS_16__deque_iteratorIiPKiRS2_PKS3_lLl1024EEES7_EENS_4pairIT0_S9_EET_SB_, symObjAddr: 0x4D380, symBinAddr: 0x1000528C0, symSize: 0x440 }
  - { offset: 0x28CBF, size: 0x8, addend: 0x0, symName: __ZNSt3__114__unwrap_rangeB8ne180100INS_16__deque_iteratorIiPKiRS2_PKS3_lLl1024EEES7_EENS_4pairIT0_S9_EET_SB_, symObjAddr: 0x4D380, symBinAddr: 0x1000528C0, symSize: 0x440 }
  - { offset: 0x28CC7, size: 0x8, addend: 0x0, symName: __ZNKSt3__111__copy_loopINS_17_ClassicAlgPolicyEEclB8ne180100INS_16__deque_iteratorIiPKiRS5_PKS6_lLl1024EEENS4_IiPiRiPSB_lLl1024EEELi0EEENS_4pairIT_T0_EESG_SG_SH_, symObjAddr: 0x4D7C0, symBinAddr: 0x100052D00, symSize: 0x438 }
  - { offset: 0x28E33, size: 0x8, addend: 0x0, symName: __ZNSt3__113__unwrap_iterB8ne180100INS_16__deque_iteratorIiPiRiPS2_lLl1024EEENS_18__unwrap_iter_implIS5_Lb0EEELi0EEEDTclsrT0_8__unwrapclsr3stdE7declvalIT_EEEES9_, symObjAddr: 0x4DBF8, symBinAddr: 0x100053138, symSize: 0x2DC }
  - { offset: 0x28E3B, size: 0x8, addend: 0x0, symName: __ZNSt3__19make_pairB8ne180100INS_16__deque_iteratorIiPKiRS2_PKS3_lLl1024EEENS1_IiPiRiPS8_lLl1024EEEEENS_4pairINS_18__unwrap_ref_decayIT_E4typeENSD_IT0_E4typeEEEOSE_OSH_, symObjAddr: 0x4DED4, symBinAddr: 0x100053414, symSize: 0x38 }
  - { offset: 0x28E94, size: 0x8, addend: 0x0, symName: __ZNSt3__19make_pairB8ne180100INS_16__deque_iteratorIiPKiRS2_PKS3_lLl1024EEENS1_IiPiRiPS8_lLl1024EEEEENS_4pairINS_18__unwrap_ref_decayIT_E4typeENSD_IT0_E4typeEEEOSE_OSH_, symObjAddr: 0x4DED4, symBinAddr: 0x100053414, symSize: 0x38 }
  - { offset: 0x28E9C, size: 0x8, addend: 0x0, symName: __ZNSt3__114__rewrap_rangeB8ne180100INS_16__deque_iteratorIiPKiRS2_PKS3_lLl1024EEES7_EET_S8_T0_, symObjAddr: 0x4DF0C, symBinAddr: 0x10005344C, symSize: 0x3CC }
  - { offset: 0x28EFC, size: 0x8, addend: 0x0, symName: __ZNSt3__114__rewrap_rangeB8ne180100INS_16__deque_iteratorIiPKiRS2_PKS3_lLl1024EEES7_EET_S8_T0_, symObjAddr: 0x4DF0C, symBinAddr: 0x10005344C, symSize: 0x3CC }
  - { offset: 0x28F04, size: 0x8, addend: 0x0, symName: __ZNSt3__113__rewrap_iterB8ne180100INS_16__deque_iteratorIiPiRiPS2_lLl1024EEES5_NS_18__unwrap_iter_implIS5_Lb0EEEEET_S8_T0_, symObjAddr: 0x4E2D8, symBinAddr: 0x100053818, symSize: 0x460 }
  - { offset: 0x28F69, size: 0x8, addend: 0x0, symName: __ZNSt3__113__rewrap_iterB8ne180100INS_16__deque_iteratorIiPiRiPS2_lLl1024EEES5_NS_18__unwrap_iter_implIS5_Lb0EEEEET_S8_T0_, symObjAddr: 0x4E2D8, symBinAddr: 0x100053818, symSize: 0x460 }
  - { offset: 0x28F71, size: 0x8, addend: 0x0, symName: __ZNSt3__19make_pairB8ne180100INS_16__deque_iteratorIiPKiRS2_PKS3_lLl1024EEES7_EENS_4pairINS_18__unwrap_ref_decayIT_E4typeENS9_IT0_E4typeEEEOSA_OSD_, symObjAddr: 0x4E738, symBinAddr: 0x100053C78, symSize: 0x38 }
  - { offset: 0x28FE3, size: 0x8, addend: 0x0, symName: __ZNSt3__19make_pairB8ne180100INS_16__deque_iteratorIiPKiRS2_PKS3_lLl1024EEES7_EENS_4pairINS_18__unwrap_ref_decayIT_E4typeENS9_IT0_E4typeEEEOSA_OSD_, symObjAddr: 0x4E738, symBinAddr: 0x100053C78, symSize: 0x38 }
  - { offset: 0x28FEB, size: 0x8, addend: 0x0, symName: __ZNSt3__113__unwrap_iterB8ne180100INS_16__deque_iteratorIiPKiRS2_PKS3_lLl1024EEENS_18__unwrap_iter_implIS7_Lb0EEELi0EEEDTclsrT0_8__unwrapclsr3stdE7declvalIT_EEEESB_, symObjAddr: 0x4E770, symBinAddr: 0x100053CB0, symSize: 0x2DC }
  - { offset: 0x2904B, size: 0x8, addend: 0x0, symName: __ZNSt3__113__unwrap_iterB8ne180100INS_16__deque_iteratorIiPKiRS2_PKS3_lLl1024EEENS_18__unwrap_iter_implIS7_Lb0EEELi0EEEDTclsrT0_8__unwrapclsr3stdE7declvalIT_EEEESB_, symObjAddr: 0x4E770, symBinAddr: 0x100053CB0, symSize: 0x2DC }
  - { offset: 0x29053, size: 0x8, addend: 0x0, symName: __ZNSt3__14pairINS_16__deque_iteratorIiPKiRS2_PKS3_lLl1024EEES7_EC1B8ne180100ERKS7_SA_, symObjAddr: 0x4EA4C, symBinAddr: 0x100053F8C, symSize: 0x3C }
  - { offset: 0x2921D, size: 0x8, addend: 0x0, symName: __ZNSt3__118__for_each_segmentB8ne180100INS_16__deque_iteratorIiPKiRS2_PKS3_lLl1024EEENS_11__copy_loopINS_17_ClassicAlgPolicyEE12_CopySegmentIS7_NS1_IiPiRiPSC_lLl1024EEEEEEEvT_SH_T0_, symObjAddr: 0x4ED40, symBinAddr: 0x100054280, symSize: 0x5E8 }
  - { offset: 0x29225, size: 0x8, addend: 0x0, symName: __ZNSt3__111__copy_loopINS_17_ClassicAlgPolicyEE12_CopySegmentINS_16__deque_iteratorIiPKiRS5_PKS6_lLl1024EEENS4_IiPiRiPSB_lLl1024EEEEC1B8ne180100ERSE_, symObjAddr: 0x4F328, symBinAddr: 0x100054868, symSize: 0x34 }
  - { offset: 0x292BE, size: 0x8, addend: 0x0, symName: __ZNSt3__19make_pairB8ne180100IRNS_16__deque_iteratorIiPKiRS2_PKS3_lLl1024EEENS1_IiPiRiPS9_lLl1024EEEEENS_4pairINS_18__unwrap_ref_decayIT_E4typeENSE_IT0_E4typeEEEOSF_OSI_, symObjAddr: 0x4F35C, symBinAddr: 0x10005489C, symSize: 0x38 }
  - { offset: 0x292C6, size: 0x8, addend: 0x0, symName: __ZNSt3__127__segmented_iterator_traitsINS_16__deque_iteratorIiPKiRS2_PKS3_lLl1024EEEE9__segmentB8ne180100ES7_, symObjAddr: 0x4F394, symBinAddr: 0x1000548D4, symSize: 0x224 }
  - { offset: 0x29326, size: 0x8, addend: 0x0, symName: __ZNSt3__16__copyB8ne180100INS_17_ClassicAlgPolicyEPKiS3_NS_16__deque_iteratorIiPiRiPS5_lLl1024EEEEENS_4pairIT0_T2_EESA_T1_SB_, symObjAddr: 0x4FB9C, symBinAddr: 0x1000550DC, symSize: 0x290 }
  - { offset: 0x2932E, size: 0x8, addend: 0x0, symName: __ZNSt3__123__dispatch_copy_or_moveB8ne180100INS_17_ClassicAlgPolicyENS_11__copy_loopIS1_EENS_14__copy_trivialEPKiS6_NS_16__deque_iteratorIiPiRiPS8_lLl1024EEEEENS_4pairIT2_T4_EESD_T3_SE_, symObjAddr: 0x4FE2C, symBinAddr: 0x10005536C, symSize: 0x290 }
  - { offset: 0x293B9, size: 0x8, addend: 0x0, symName: __ZNSt3__123__dispatch_copy_or_moveB8ne180100INS_17_ClassicAlgPolicyENS_11__copy_loopIS1_EENS_14__copy_trivialEPKiS6_NS_16__deque_iteratorIiPiRiPS8_lLl1024EEEEENS_4pairIT2_T4_EESD_T3_SE_, symObjAddr: 0x4FE2C, symBinAddr: 0x10005536C, symSize: 0x290 }
  - { offset: 0x293C1, size: 0x8, addend: 0x0, symName: __ZNSt3__121__unwrap_and_dispatchB8ne180100INS_10__overloadINS_11__copy_loopINS_17_ClassicAlgPolicyEEENS_14__copy_trivialEEEPKiS8_NS_16__deque_iteratorIiPiRiPSA_lLl1024EEELi0EEENS_4pairIT0_T2_EESF_T1_SG_, symObjAddr: 0x500BC, symBinAddr: 0x1000555FC, symSize: 0x674 }
  - { offset: 0x2946A, size: 0x8, addend: 0x0, symName: __ZNSt3__121__unwrap_and_dispatchB8ne180100INS_10__overloadINS_11__copy_loopINS_17_ClassicAlgPolicyEEENS_14__copy_trivialEEEPKiS8_NS_16__deque_iteratorIiPiRiPSA_lLl1024EEELi0EEENS_4pairIT0_T2_EESF_T1_SG_, symObjAddr: 0x500BC, symBinAddr: 0x1000555FC, symSize: 0x674 }
  - { offset: 0x29472, size: 0x8, addend: 0x0, symName: __ZNSt3__114__unwrap_rangeB8ne180100IPKiS2_EENS_4pairIT0_S4_EET_S6_, symObjAddr: 0x50730, symBinAddr: 0x100055C70, symSize: 0x340 }
  - { offset: 0x29537, size: 0x8, addend: 0x0, symName: __ZNSt3__114__unwrap_rangeB8ne180100IPKiS2_EENS_4pairIT0_S4_EET_S6_, symObjAddr: 0x50730, symBinAddr: 0x100055C70, symSize: 0x340 }
  - { offset: 0x2953F, size: 0x8, addend: 0x0, symName: __ZNKSt3__111__copy_loopINS_17_ClassicAlgPolicyEEclB8ne180100IPKiNS_16__deque_iteratorIiPiRiPS7_lLl1024EEELi0EEENS_4pairIT_T0_EESC_SC_SD_, symObjAddr: 0x50A70, symBinAddr: 0x100055FB0, symSize: 0x7A4 }
  - { offset: 0x296A5, size: 0x8, addend: 0x0, symName: __ZNSt3__19make_pairB8ne180100IPKiNS_16__deque_iteratorIiPiRiPS4_lLl1024EEEEENS_4pairINS_18__unwrap_ref_decayIT_E4typeENS9_IT0_E4typeEEEOSA_OSD_, symObjAddr: 0x51214, symBinAddr: 0x100056754, symSize: 0x38 }
  - { offset: 0x296AD, size: 0x8, addend: 0x0, symName: __ZNSt3__114__rewrap_rangeB8ne180100IPKiS2_EET_S3_T0_, symObjAddr: 0x5124C, symBinAddr: 0x10005678C, symSize: 0x2C }
  - { offset: 0x2970D, size: 0x8, addend: 0x0, symName: __ZNSt3__114__rewrap_rangeB8ne180100IPKiS2_EET_S3_T0_, symObjAddr: 0x5124C, symBinAddr: 0x10005678C, symSize: 0x2C }
  - { offset: 0x29715, size: 0x8, addend: 0x0, symName: __ZNSt3__19make_pairB8ne180100IPKiS2_EENS_4pairINS_18__unwrap_ref_decayIT_E4typeENS4_IT0_E4typeEEEOS5_OS8_, symObjAddr: 0x51278, symBinAddr: 0x1000567B8, symSize: 0x204 }
  - { offset: 0x29772, size: 0x8, addend: 0x0, symName: __ZNSt3__19make_pairB8ne180100IPKiS2_EENS_4pairINS_18__unwrap_ref_decayIT_E4typeENS4_IT0_E4typeEEEOS5_OS8_, symObjAddr: 0x51278, symBinAddr: 0x1000567B8, symSize: 0x204 }
  - { offset: 0x2977A, size: 0x8, addend: 0x0, symName: __ZNSt3__113__unwrap_iterB8ne180100IPKiNS_18__unwrap_iter_implIS2_Lb1EEELi0EEEDTclsrT0_8__unwrapclsr3stdE7declvalIT_EEEES6_, symObjAddr: 0x5147C, symBinAddr: 0x1000569BC, symSize: 0x24 }
  - { offset: 0x297DC, size: 0x8, addend: 0x0, symName: __ZNSt3__113__unwrap_iterB8ne180100IPKiNS_18__unwrap_iter_implIS2_Lb1EEELi0EEEDTclsrT0_8__unwrapclsr3stdE7declvalIT_EEEES6_, symObjAddr: 0x5147C, symBinAddr: 0x1000569BC, symSize: 0x24 }
  - { offset: 0x297E4, size: 0x8, addend: 0x0, symName: __ZNSt3__14pairIPKiS2_EC1B8ne180100ERKS2_S5_, symObjAddr: 0x514A0, symBinAddr: 0x1000569E0, symSize: 0x3C }
  - { offset: 0x299B8, size: 0x8, addend: 0x0, symName: __ZNSt3__112__to_addressB8ne180100IKiEEPT_S3_, symObjAddr: 0x51638, symBinAddr: 0x100056B78, symSize: 0x14 }
  - { offset: 0x299C0, size: 0x8, addend: 0x0, symName: __ZNSt3__127__segmented_iterator_traitsINS_16__deque_iteratorIiPiRiPS2_lLl1024EEEE7__localB8ne180100ES5_, symObjAddr: 0x5164C, symBinAddr: 0x100056B8C, symSize: 0x228 }
  - { offset: 0x29AF1, size: 0x8, addend: 0x0, symName: __ZNSt3__13minB8ne180100IlEERKT_S3_S3_, symObjAddr: 0x51AFC, symBinAddr: 0x10005703C, symSize: 0x2C }
  - { offset: 0x29AF9, size: 0x8, addend: 0x0, symName: __ZNSt3__16__copyB8ne180100INS_17_ClassicAlgPolicyEPKiS3_PiEENS_4pairIT0_T2_EES6_T1_S7_, symObjAddr: 0x51B28, symBinAddr: 0x100057068, symSize: 0x224 }
  - { offset: 0x29B49, size: 0x8, addend: 0x0, symName: __ZNSt3__16__copyB8ne180100INS_17_ClassicAlgPolicyEPKiS3_PiEENS_4pairIT0_T2_EES6_T1_S7_, symObjAddr: 0x51B28, symBinAddr: 0x100057068, symSize: 0x224 }
  - { offset: 0x29B51, size: 0x8, addend: 0x0, symName: __ZNSt3__127__segmented_iterator_traitsINS_16__deque_iteratorIiPiRiPS2_lLl1024EEEE9__composeB8ne180100ES4_S2_, symObjAddr: 0x51D4C, symBinAddr: 0x10005728C, symSize: 0x2A4 }
  - { offset: 0x29BD9, size: 0x8, addend: 0x0, symName: __ZNSt3__13minB8ne180100IlNS_6__lessIvvEEEERKT_S5_S5_T0_, symObjAddr: 0x52050, symBinAddr: 0x100057590, symSize: 0x1E0 }
  - { offset: 0x29BE1, size: 0x8, addend: 0x0, symName: __ZNKSt3__16__lessIvvEclB8ne180100IllEEbRKT_RKT0_, symObjAddr: 0x52230, symBinAddr: 0x100057770, symSize: 0xBC }
  - { offset: 0x29C56, size: 0x8, addend: 0x0, symName: __ZNSt3__123__dispatch_copy_or_moveB8ne180100INS_17_ClassicAlgPolicyENS_11__copy_loopIS1_EENS_14__copy_trivialEPKiS6_PiEENS_4pairIT2_T4_EES9_T3_SA_, symObjAddr: 0x522EC, symBinAddr: 0x10005782C, symSize: 0x224 }
  - { offset: 0x29C5E, size: 0x8, addend: 0x0, symName: __ZNSt3__121__unwrap_and_dispatchB8ne180100INS_10__overloadINS_11__copy_loopINS_17_ClassicAlgPolicyEEENS_14__copy_trivialEEEPKiS8_PiLi0EEENS_4pairIT0_T2_EESB_T1_SC_, symObjAddr: 0x52510, symBinAddr: 0x100057A50, symSize: 0x59C }
  - { offset: 0x29D04, size: 0x8, addend: 0x0, symName: __ZNSt3__121__unwrap_and_dispatchB8ne180100INS_10__overloadINS_11__copy_loopINS_17_ClassicAlgPolicyEEENS_14__copy_trivialEEEPKiS8_PiLi0EEENS_4pairIT0_T2_EESB_T1_SC_, symObjAddr: 0x52510, symBinAddr: 0x100057A50, symSize: 0x59C }
  - { offset: 0x29D0C, size: 0x8, addend: 0x0, symName: __ZNKSt3__114__copy_trivialclB8ne180100IKiiLi0EEENS_4pairIPT_PT0_EES5_S5_S7_, symObjAddr: 0x52AAC, symBinAddr: 0x100057FEC, symSize: 0x228 }
  - { offset: 0x29ED5, size: 0x8, addend: 0x0, symName: __ZNSt3__19make_pairB8ne180100IPKiPiEENS_4pairINS_18__unwrap_ref_decayIT_E4typeENS5_IT0_E4typeEEEOS6_OS9_, symObjAddr: 0x52CD4, symBinAddr: 0x100058214, symSize: 0x204 }
  - { offset: 0x29EDD, size: 0x8, addend: 0x0, symName: __ZNSt3__119__copy_trivial_implB8ne180100IKiiEENS_4pairIPT_PT0_EES4_S4_S6_, symObjAddr: 0x52ED8, symBinAddr: 0x100058418, symSize: 0x3A4 }
  - { offset: 0x29F3F, size: 0x8, addend: 0x0, symName: __ZNSt3__119__copy_trivial_implB8ne180100IKiiEENS_4pairIPT_PT0_EES4_S4_S6_, symObjAddr: 0x52ED8, symBinAddr: 0x100058418, symSize: 0x3A4 }
  - { offset: 0x29F47, size: 0x8, addend: 0x0, symName: __ZNSt3__119__constexpr_memmoveB8ne180100IiKiLi0EEEPT_S3_PT0_NS_15__element_countE, symObjAddr: 0x5327C, symBinAddr: 0x1000587BC, symSize: 0xB0 }
  - { offset: 0x29FCF, size: 0x8, addend: 0x0, symName: __ZNSt3__119__constexpr_memmoveB8ne180100IiKiLi0EEEPT_S3_PT0_NS_15__element_countE, symObjAddr: 0x5327C, symBinAddr: 0x1000587BC, symSize: 0xB0 }
  - { offset: 0x29FD7, size: 0x8, addend: 0x0, symName: __ZNSt3__19make_pairB8ne180100IRPKiPiEENS_4pairINS_18__unwrap_ref_decayIT_E4typeENS6_IT0_E4typeEEEOS7_OSA_, symObjAddr: 0x5332C, symBinAddr: 0x10005886C, symSize: 0x204 }
  - { offset: 0x2A062, size: 0x8, addend: 0x0, symName: __ZNSt3__19make_pairB8ne180100IRPKiPiEENS_4pairINS_18__unwrap_ref_decayIT_E4typeENS6_IT0_E4typeEEEOS7_OSA_, symObjAddr: 0x5332C, symBinAddr: 0x10005886C, symSize: 0x204 }
  - { offset: 0x2A06A, size: 0x8, addend: 0x0, symName: __ZNSt3__14pairIPKiPiEC1B8ne180100ERKS2_RKS3_, symObjAddr: 0x53530, symBinAddr: 0x100058A70, symSize: 0x3C }
  - { offset: 0x2A0CC, size: 0x8, addend: 0x0, symName: __ZNSt3__113__rewrap_iterB8ne180100IPKiS2_NS_18__unwrap_iter_implIS2_Lb1EEEEET_S5_T0_, symObjAddr: 0x538A0, symBinAddr: 0x100058DE0, symSize: 0x5C }
  - { offset: 0x2A0D4, size: 0x8, addend: 0x0, symName: __ZNSt3__118__unwrap_iter_implIPKiLb1EE8__rewrapB8ne180100ES2_S2_, symObjAddr: 0x538FC, symBinAddr: 0x100058E3C, symSize: 0x50 }
  - { offset: 0x2A1A7, size: 0x8, addend: 0x0, symName: __ZNSt3__113__rewrap_iterB8ne180100INS_16__deque_iteratorIiPKiRS2_PKS3_lLl1024EEES7_NS_18__unwrap_iter_implIS7_Lb0EEEEET_SA_T0_, symObjAddr: 0x53CB0, symBinAddr: 0x1000591F0, symSize: 0x460 }
  - { offset: 0x2A1AF, size: 0x8, addend: 0x0, symName: __ZNSt3__118__unwrap_iter_implINS_16__deque_iteratorIiPKiRS2_PKS3_lLl1024EEELb0EE8__rewrapB8ne180100ES7_S7_, symObjAddr: 0x54110, symBinAddr: 0x100059650, symSize: 0x2D0 }
  - { offset: 0x2BAEB, size: 0x8, addend: 0x0, symName: __ZN8VectSort6_debugE, symObjAddr: 0xD9D80, symBinAddr: 0x100071300, symSize: 0x0 }
  - { offset: 0x2BB03, size: 0x8, addend: 0x0, symName: __ZN9DequeSort6_countE, symObjAddr: 0xD9DA0, symBinAddr: 0x100071320, symSize: 0x0 }
  - { offset: 0x2C069, size: 0x8, addend: 0x0, symName: __ZN9DequeSort6_debugE, symObjAddr: 0xD9DC0, symBinAddr: 0x100071340, symSize: 0x0 }
  - { offset: 0x2C082, size: 0x8, addend: 0x0, symName: _.str, symObjAddr: 0x55D60, symBinAddr: 0x10005BC40, symSize: 0x0 }
  - { offset: 0x2C0BB, size: 0x8, addend: 0x0, symName: _.str.1, symObjAddr: 0x55DA0, symBinAddr: 0x10005BC80, symSize: 0x0 }
  - { offset: 0x2C0D0, size: 0x8, addend: 0x0, symName: _.str.2, symObjAddr: 0x55DE0, symBinAddr: 0x10005BCC0, symSize: 0x0 }
  - { offset: 0x2C0F9, size: 0x8, addend: 0x0, symName: _.str.3, symObjAddr: 0x55E00, symBinAddr: 0x10005BCE0, symSize: 0x0 }
  - { offset: 0x2C122, size: 0x8, addend: 0x0, symName: _.str.4, symObjAddr: 0x55E20, symBinAddr: 0x10005BD00, symSize: 0x0 }
  - { offset: 0x2C14B, size: 0x8, addend: 0x0, symName: _.str.5, symObjAddr: 0x55E60, symBinAddr: 0x10005BD40, symSize: 0x0 }
  - { offset: 0x2C174, size: 0x8, addend: 0x0, symName: _.str.6, symObjAddr: 0x55E80, symBinAddr: 0x10005BD60, symSize: 0x0 }
  - { offset: 0x2C19D, size: 0x8, addend: 0x0, symName: _.str.7, symObjAddr: 0x55EA0, symBinAddr: 0x10005BD80, symSize: 0x0 }
  - { offset: 0x2C1C6, size: 0x8, addend: 0x0, symName: _.str.8, symObjAddr: 0x55EE0, symBinAddr: 0x10005BDC0, symSize: 0x0 }
  - { offset: 0x2C1EF, size: 0x8, addend: 0x0, symName: _.str.9, symObjAddr: 0x55F40, symBinAddr: 0x10005BE20, symSize: 0x0 }
  - { offset: 0x2C218, size: 0x8, addend: 0x0, symName: _.str.10, symObjAddr: 0x55F80, symBinAddr: 0x10005BE60, symSize: 0x0 }
  - { offset: 0x2C241, size: 0x8, addend: 0x0, symName: _.str.11, symObjAddr: 0x55FA0, symBinAddr: 0x10005BE80, symSize: 0x0 }
  - { offset: 0x2C256, size: 0x8, addend: 0x0, symName: _.str.12, symObjAddr: 0x55FC0, symBinAddr: 0x10005BEA0, symSize: 0x0 }
  - { offset: 0x2C27F, size: 0x8, addend: 0x0, symName: _.str.13, symObjAddr: 0x55FE0, symBinAddr: 0x10005BEC0, symSize: 0x0 }
  - { offset: 0x2C2A8, size: 0x8, addend: 0x0, symName: _.str.14, symObjAddr: 0x56000, symBinAddr: 0x10005BEE0, symSize: 0x0 }
  - { offset: 0x2C2D1, size: 0x8, addend: 0x0, symName: _.str.15, symObjAddr: 0x56020, symBinAddr: 0x10005BF00, symSize: 0x0 }
  - { offset: 0x2C2FA, size: 0x8, addend: 0x0, symName: _.str.16, symObjAddr: 0x56040, symBinAddr: 0x10005BF20, symSize: 0x0 }
  - { offset: 0x2C30F, size: 0x8, addend: 0x0, symName: _.str.17, symObjAddr: 0x56060, symBinAddr: 0x10005BF40, symSize: 0x0 }
  - { offset: 0x2C324, size: 0x8, addend: 0x0, symName: _.str.18, symObjAddr: 0x56080, symBinAddr: 0x10005BF60, symSize: 0x0 }
  - { offset: 0x2C339, size: 0x8, addend: 0x0, symName: _.str.19, symObjAddr: 0x560A0, symBinAddr: 0x10005BF80, symSize: 0x0 }
  - { offset: 0x2C34E, size: 0x8, addend: 0x0, symName: _.str.20, symObjAddr: 0x560C0, symBinAddr: 0x10005BFA0, symSize: 0x0 }
  - { offset: 0x2C363, size: 0x8, addend: 0x0, symName: _.str.21, symObjAddr: 0x560E0, symBinAddr: 0x10005BFC0, symSize: 0x0 }
  - { offset: 0x2C378, size: 0x8, addend: 0x0, symName: _.str.22, symObjAddr: 0x56100, symBinAddr: 0x10005BFE0, symSize: 0x0 }
  - { offset: 0x2C38D, size: 0x8, addend: 0x0, symName: _.str.23, symObjAddr: 0x56120, symBinAddr: 0x10005C000, symSize: 0x0 }
  - { offset: 0x2C3A2, size: 0x8, addend: 0x0, symName: _.str.24, symObjAddr: 0x56160, symBinAddr: 0x10005C040, symSize: 0x0 }
  - { offset: 0x2C3B7, size: 0x8, addend: 0x0, symName: _.str.25, symObjAddr: 0x56180, symBinAddr: 0x10005C060, symSize: 0x0 }
  - { offset: 0x2C3CC, size: 0x8, addend: 0x0, symName: _.str.26, symObjAddr: 0x561A0, symBinAddr: 0x10005C080, symSize: 0x0 }
  - { offset: 0x2C3F5, size: 0x8, addend: 0x0, symName: _.str.27, symObjAddr: 0x561C0, symBinAddr: 0x10005C0A0, symSize: 0x0 }
  - { offset: 0x2C40A, size: 0x8, addend: 0x0, symName: _.str.28, symObjAddr: 0x561E0, symBinAddr: 0x10005C0C0, symSize: 0x0 }
  - { offset: 0x2C41F, size: 0x8, addend: 0x0, symName: _.str.29, symObjAddr: 0x56200, symBinAddr: 0x10005C0E0, symSize: 0x0 }
  - { offset: 0x2C434, size: 0x8, addend: 0x0, symName: _.str.30, symObjAddr: 0x56220, symBinAddr: 0x10005C100, symSize: 0x0 }
  - { offset: 0x2C449, size: 0x8, addend: 0x0, symName: _.str.31, symObjAddr: 0x56240, symBinAddr: 0x10005C120, symSize: 0x0 }
  - { offset: 0x2C45E, size: 0x8, addend: 0x0, symName: _.str.32, symObjAddr: 0x56260, symBinAddr: 0x10005C140, symSize: 0x0 }
  - { offset: 0x2C473, size: 0x8, addend: 0x0, symName: _.str.33, symObjAddr: 0x56280, symBinAddr: 0x10005C160, symSize: 0x0 }
  - { offset: 0x2C488, size: 0x8, addend: 0x0, symName: _.str.34, symObjAddr: 0x562A0, symBinAddr: 0x10005C180, symSize: 0x0 }
  - { offset: 0x2C49D, size: 0x8, addend: 0x0, symName: _.str.35, symObjAddr: 0x562C0, symBinAddr: 0x10005C1A0, symSize: 0x0 }
  - { offset: 0x2C4B2, size: 0x8, addend: 0x0, symName: _.str.36, symObjAddr: 0x562E0, symBinAddr: 0x10005C1C0, symSize: 0x0 }
  - { offset: 0x2C4DC, size: 0x8, addend: 0x0, symName: _.str.37, symObjAddr: 0x56300, symBinAddr: 0x10005C1E0, symSize: 0x0 }
  - { offset: 0x2C4F2, size: 0x8, addend: 0x0, symName: _.str.38, symObjAddr: 0x56320, symBinAddr: 0x10005C200, symSize: 0x0 }
  - { offset: 0x2C51C, size: 0x8, addend: 0x0, symName: _.str.39, symObjAddr: 0x56380, symBinAddr: 0x10005C260, symSize: 0x0 }
  - { offset: 0x2C546, size: 0x8, addend: 0x0, symName: _.str.40, symObjAddr: 0x563E0, symBinAddr: 0x10005C2C0, symSize: 0x0 }
  - { offset: 0x2C570, size: 0x8, addend: 0x0, symName: _.str.41, symObjAddr: 0x56420, symBinAddr: 0x10005C300, symSize: 0x0 }
  - { offset: 0x2C586, size: 0x8, addend: 0x0, symName: _.str.42, symObjAddr: 0x56460, symBinAddr: 0x10005C340, symSize: 0x0 }
  - { offset: 0x2C5B0, size: 0x8, addend: 0x0, symName: _.str.43, symObjAddr: 0x56480, symBinAddr: 0x10005C360, symSize: 0x0 }
  - { offset: 0x2C5C6, size: 0x8, addend: 0x0, symName: _.str.44, symObjAddr: 0x564A0, symBinAddr: 0x10005C380, symSize: 0x0 }
  - { offset: 0x2C5F0, size: 0x8, addend: 0x0, symName: _.str.45, symObjAddr: 0x564E0, symBinAddr: 0x10005C3C0, symSize: 0x0 }
  - { offset: 0x2C606, size: 0x8, addend: 0x0, symName: _.str.46, symObjAddr: 0x56500, symBinAddr: 0x10005C3E0, symSize: 0x0 }
  - { offset: 0x2C61C, size: 0x8, addend: 0x0, symName: _.str.47, symObjAddr: 0x56520, symBinAddr: 0x10005C400, symSize: 0x0 }
  - { offset: 0x2C632, size: 0x8, addend: 0x0, symName: _.str.48, symObjAddr: 0x56540, symBinAddr: 0x10005C420, symSize: 0x0 }
  - { offset: 0x2C65C, size: 0x8, addend: 0x0, symName: _.str.49, symObjAddr: 0x56580, symBinAddr: 0x10005C460, symSize: 0x0 }
  - { offset: 0x2C672, size: 0x8, addend: 0x0, symName: _.str.50, symObjAddr: 0x565A0, symBinAddr: 0x10005C480, symSize: 0x0 }
  - { offset: 0x2C9CE, size: 0x8, addend: 0x0, symName: __ZNSt3__16vectorIiNS_9allocatorIiEEE26__swap_out_circular_bufferERNS_14__split_bufferIiRS2_EE, symObjAddr: 0x18E84, symBinAddr: 0x1000200D0, symSize: 0x564 }
  - { offset: 0x2C9D6, size: 0x8, addend: 0x0, symName: __ZNSt3__114__split_bufferIiRNS_9allocatorIiEEED1Ev, symObjAddr: 0x193E8, symBinAddr: 0x100020634, symSize: 0x2C }
  - { offset: 0x2CB99, size: 0x8, addend: 0x0, symName: __ZNSt3__16vectorIlNS_9allocatorIlEEE26__swap_out_circular_bufferERNS_14__split_bufferIlRS2_EE, symObjAddr: 0x282A4, symBinAddr: 0x10002D7E4, symSize: 0x564 }
  - { offset: 0x2CBA1, size: 0x8, addend: 0x0, symName: __ZNSt3__114__split_bufferIlRNS_9allocatorIlEEED1Ev, symObjAddr: 0x28808, symBinAddr: 0x10002DD48, symSize: 0x2C }
  - { offset: 0x2CC15, size: 0x8, addend: 0x0, symName: __ZNSt3__16vectorIiNS_9allocatorIiEEE26__swap_out_circular_bufferERNS_14__split_bufferIiRS2_EEPi, symObjAddr: 0x2FC38, symBinAddr: 0x100035178, symSize: 0x670 }
  - { offset: 0x2CC1D, size: 0x8, addend: 0x0, symName: __ZNSt3__19__advanceB8ne180100INS_11__wrap_iterIPiEEEEvRT_NS_15iterator_traitsIS4_E15difference_typeENS_26random_access_iterator_tagE, symObjAddr: 0x302A8, symBinAddr: 0x1000357E8, symSize: 0x2C }
  - { offset: 0x2CE18, size: 0x8, addend: 0x0, symName: __Z1Fi, symObjAddr: 0x0, symBinAddr: 0x10000827C, symSize: 0x94 }
  - { offset: 0x2CE20, size: 0x8, addend: 0x0, symName: __ZN8VectSortC2EPc, symObjAddr: 0x94, symBinAddr: 0x100008310, symSize: 0xA80 }
  - { offset: 0x2CEAC, size: 0x8, addend: 0x0, symName: __ZN8VectSortC2EPc, symObjAddr: 0x94, symBinAddr: 0x100008310, symSize: 0xA80 }
  - { offset: 0x2CEB4, size: 0x8, addend: 0x0, symName: __ZNSt3__16vectorIiNS_9allocatorIiEEEC1B8ne180100Ev, symObjAddr: 0xB14, symBinAddr: 0x100008D90, symSize: 0x2C }
  - { offset: 0x2CF54, size: 0x8, addend: 0x0, symName: __ZNSt3__16vectorIiNS_9allocatorIiEEEC1B8ne180100Ev, symObjAddr: 0xB14, symBinAddr: 0x100008D90, symSize: 0x2C }
  - { offset: 0x2D120, size: 0x8, addend: 0x0, symName: __ZNSt3__118basic_stringstreamIcNS_11char_traitsIcEENS_9allocatorIcEEEC1B8ne180100ERKNS_12basic_stringIcS2_S4_EEj, symObjAddr: 0xB74, symBinAddr: 0x100008DBC, symSize: 0x274 }
  - { offset: 0x2D17B, size: 0x8, addend: 0x0, symName: __ZNSt3__112basic_stringIcNS_11char_traitsIcEENS_9allocatorIcEEEC1B8ne180100Ev, symObjAddr: 0xDF8, symBinAddr: 0x100009030, symSize: 0x2C }
  - { offset: 0x2D183, size: 0x8, addend: 0x0, symName: __ZNSt3__1rsB8ne180100IcNS_11char_traitsIcEENS_9allocatorIcEEEERNS_13basic_istreamIT_T0_EES9_RNS_12basic_stringIS6_S7_T1_EE, symObjAddr: 0xE24, symBinAddr: 0x10000905C, symSize: 0xB5C }
  - { offset: 0x2D1B0, size: 0x8, addend: 0x0, symName: __ZNKSt3__19basic_iosIcNS_11char_traitsIcEEEcvPvB8ne180100Ev, symObjAddr: 0x1980, symBinAddr: 0x100009BB8, symSize: 0x4C }
  - { offset: 0x2D1B8, size: 0x8, addend: 0x0, symName: __ZNKSt3__112basic_stringIcNS_11char_traitsIcEENS_9allocatorIcEEE5c_strB8ne180100Ev, symObjAddr: 0x19CC, symBinAddr: 0x100009C04, symSize: 0x24 }
  - { offset: 0x2D1E1, size: 0x8, addend: 0x0, symName: __ZNKSt3__112basic_stringIcNS_11char_traitsIcEENS_9allocatorIcEEE5c_strB8ne180100Ev, symObjAddr: 0x19CC, symBinAddr: 0x100009C04, symSize: 0x24 }
  - { offset: 0x2D1E9, size: 0x8, addend: 0x0, symName: __ZNSt3__16vectorIiNS_9allocatorIiEEE9push_backB8ne180100EOi, symObjAddr: 0x19F0, symBinAddr: 0x100009C28, symSize: 0x140 }
  - { offset: 0x2D212, size: 0x8, addend: 0x0, symName: __ZNSt3__16vectorIiNS_9allocatorIiEEE9push_backB8ne180100EOi, symObjAddr: 0x19F0, symBinAddr: 0x100009C28, symSize: 0x140 }
  - { offset: 0x2D21A, size: 0x8, addend: 0x0, symName: __ZNSt3__118basic_stringstreamIcNS_11char_traitsIcEENS_9allocatorIcEEED1Ev, symObjAddr: 0x1B30, symBinAddr: 0x100009D68, symSize: 0x7C }
  - { offset: 0x2D275, size: 0x8, addend: 0x0, symName: __ZNSt3__118basic_stringstreamIcNS_11char_traitsIcEENS_9allocatorIcEEED1Ev, symObjAddr: 0x1B30, symBinAddr: 0x100009D68, symSize: 0x7C }
  - { offset: 0x2D27D, size: 0x8, addend: 0x0, symName: __ZNSt3__16vectorIiNS_9allocatorIiEEED1B8ne180100Ev, symObjAddr: 0x1BAC, symBinAddr: 0x100009DE4, symSize: 0x2C }
  - { offset: 0x2D2AD, size: 0x8, addend: 0x0, symName: __ZNSt3__16vectorIiNS_9allocatorIiEEED1B8ne180100Ev, symObjAddr: 0x1BAC, symBinAddr: 0x100009DE4, symSize: 0x2C }
  - { offset: 0x2D2B5, size: 0x8, addend: 0x0, symName: __ZN8VectSortC1EPc, symObjAddr: 0x1BD8, symBinAddr: 0x100009E10, symSize: 0x34 }
  - { offset: 0x2D2E3, size: 0x8, addend: 0x0, symName: __ZN8VectSortC1EPc, symObjAddr: 0x1BD8, symBinAddr: 0x100009E10, symSize: 0x34 }
  - { offset: 0x2D2EB, size: 0x8, addend: 0x0, symName: __ZN8VectSortD2Ev, symObjAddr: 0x1C0C, symBinAddr: 0x100009E44, symSize: 0x2C }
  - { offset: 0x2D32D, size: 0x8, addend: 0x0, symName: __ZN8VectSortD2Ev, symObjAddr: 0x1C0C, symBinAddr: 0x100009E44, symSize: 0x2C }
  - { offset: 0x2D335, size: 0x8, addend: 0x0, symName: __ZN8VectSortD1Ev, symObjAddr: 0x1C38, symBinAddr: 0x100009E70, symSize: 0x2C }
  - { offset: 0x2D365, size: 0x8, addend: 0x0, symName: __ZN8VectSortD1Ev, symObjAddr: 0x1C38, symBinAddr: 0x100009E70, symSize: 0x2C }
  - { offset: 0x2D36D, size: 0x8, addend: 0x0, symName: __ZNK8VectSort11endSortInfoEv, symObjAddr: 0x1C64, symBinAddr: 0x100009E9C, symSize: 0x6D4 }
  - { offset: 0x2D39D, size: 0x8, addend: 0x0, symName: __ZNK8VectSort11endSortInfoEv, symObjAddr: 0x1C64, symBinAddr: 0x100009E9C, symSize: 0x6D4 }
  - { offset: 0x2D421, size: 0x8, addend: 0x0, symName: __ZNKSt3__16vectorIiNS_9allocatorIiEEE5beginB8ne180100Ev, symObjAddr: 0x2480, symBinAddr: 0x10000A570, symSize: 0x260 }
  - { offset: 0x2D429, size: 0x8, addend: 0x0, symName: __ZNKSt3__16vectorIiNS_9allocatorIiEEE3endB8ne180100Ev, symObjAddr: 0x26E0, symBinAddr: 0x10000A7D0, symSize: 0x264 }
  - { offset: 0x2D455, size: 0x8, addend: 0x0, symName: __ZNKSt3__16vectorIiNS_9allocatorIiEEE3endB8ne180100Ev, symObjAddr: 0x26E0, symBinAddr: 0x10000A7D0, symSize: 0x264 }
  - { offset: 0x2D45D, size: 0x8, addend: 0x0, symName: __ZNSt3__1neB8ne180100IPKiEEbRKNS_11__wrap_iterIT_EES7_, symObjAddr: 0x2944, symBinAddr: 0x10000AA34, symSize: 0x34 }
  - { offset: 0x2D489, size: 0x8, addend: 0x0, symName: __ZNKSt3__111__wrap_iterIPKiEdeB8ne180100Ev, symObjAddr: 0x2978, symBinAddr: 0x10000AA68, symSize: 0x60 }
  - { offset: 0x2D491, size: 0x8, addend: 0x0, symName: __ZNSt3__111__wrap_iterIPKiEppB8ne180100Ei, symObjAddr: 0x29D8, symBinAddr: 0x10000AAC8, symSize: 0x204 }
  - { offset: 0x2D4BA, size: 0x8, addend: 0x0, symName: __ZNSt3__111__wrap_iterIPKiEppB8ne180100Ei, symObjAddr: 0x29D8, symBinAddr: 0x10000AAC8, symSize: 0x204 }
  - { offset: 0x2D4C2, size: 0x8, addend: 0x0, symName: __ZNSt3__113basic_ostreamIcNS_11char_traitsIcEEElsB8ne180100EPFRNS_8ios_baseES5_E, symObjAddr: 0x2BDC, symBinAddr: 0x10000ACCC, symSize: 0xC0 }
  - { offset: 0x2D511, size: 0x8, addend: 0x0, symName: __ZNSt3__113basic_ostreamIcNS_11char_traitsIcEEElsB8ne180100EPFRNS_8ios_baseES5_E, symObjAddr: 0x2BDC, symBinAddr: 0x10000ACCC, symSize: 0xC0 }
  - { offset: 0x2D519, size: 0x8, addend: 0x0, symName: __ZNSt3__15fixedB8ne180100ERNS_8ios_baseE, symObjAddr: 0x2C9C, symBinAddr: 0x10000AD8C, symSize: 0x30 }
  - { offset: 0x2D554, size: 0x8, addend: 0x0, symName: __ZNKSt3__16vectorIiNS_9allocatorIiEEE4sizeB8ne180100Ev, symObjAddr: 0x3018, symBinAddr: 0x10000B108, symSize: 0xB0 }
  - { offset: 0x2D55C, size: 0x8, addend: 0x0, symName: __ZN8VectSortC2ERKS_, symObjAddr: 0x30C8, symBinAddr: 0x10000B1B8, symSize: 0x34 }
  - { offset: 0x2D586, size: 0x8, addend: 0x0, symName: __ZN8VectSortC2ERKS_, symObjAddr: 0x30C8, symBinAddr: 0x10000B1B8, symSize: 0x34 }
  - { offset: 0x2D58E, size: 0x8, addend: 0x0, symName: __ZNSt3__16vectorIiNS_9allocatorIiEEEC1ERKS3_, symObjAddr: 0x30FC, symBinAddr: 0x10000B1EC, symSize: 0x34 }
  - { offset: 0x2D5D0, size: 0x8, addend: 0x0, symName: __ZNSt3__16vectorIiNS_9allocatorIiEEEC1ERKS3_, symObjAddr: 0x30FC, symBinAddr: 0x10000B1EC, symSize: 0x34 }
  - { offset: 0x2D5D8, size: 0x8, addend: 0x0, symName: __ZN8VectSortC1ERKS_, symObjAddr: 0x3130, symBinAddr: 0x10000B220, symSize: 0x34 }
  - { offset: 0x2D61B, size: 0x8, addend: 0x0, symName: __ZN8VectSortC1ERKS_, symObjAddr: 0x3130, symBinAddr: 0x10000B220, symSize: 0x34 }
  - { offset: 0x2D623, size: 0x8, addend: 0x0, symName: __ZNK8VectSort5printEv, symObjAddr: 0x3164, symBinAddr: 0x10000B254, symSize: 0x410 }
  - { offset: 0x2D665, size: 0x8, addend: 0x0, symName: __ZNK8VectSort5printEv, symObjAddr: 0x3164, symBinAddr: 0x10000B254, symSize: 0x410 }
  - { offset: 0x2D66D, size: 0x8, addend: 0x0, symName: __ZN8VectSortaSERKS_, symObjAddr: 0x3574, symBinAddr: 0x10000B664, symSize: 0x50 }
  - { offset: 0x2D6D8, size: 0x8, addend: 0x0, symName: __ZN8VectSortaSERKS_, symObjAddr: 0x3574, symBinAddr: 0x10000B664, symSize: 0x50 }
  - { offset: 0x2D6E0, size: 0x8, addend: 0x0, symName: __ZNSt3__16vectorIiNS_9allocatorIiEEEaSB8ne180100ERKS3_, symObjAddr: 0x35C4, symBinAddr: 0x10000B6B4, symSize: 0xEC }
  - { offset: 0x2D71D, size: 0x8, addend: 0x0, symName: __ZNSt3__16vectorIiNS_9allocatorIiEEEaSB8ne180100ERKS3_, symObjAddr: 0x35C4, symBinAddr: 0x10000B6B4, symSize: 0xEC }
  - { offset: 0x2D725, size: 0x8, addend: 0x0, symName: __ZNK8VectSort8debugCmdEPcPS0_, symObjAddr: 0x36B0, symBinAddr: 0x10000B7A0, symSize: 0x3B8 }
  - { offset: 0x2D764, size: 0x8, addend: 0x0, symName: __ZNK8VectSort8debugCmdEPcPS0_, symObjAddr: 0x36B0, symBinAddr: 0x10000B7A0, symSize: 0x3B8 }
  - { offset: 0x2D76C, size: 0x8, addend: 0x0, symName: __ZN8VectSort9debugModeEiii, symObjAddr: 0x3A68, symBinAddr: 0x10000BB58, symSize: 0x3CC }
  - { offset: 0x2D7FA, size: 0x8, addend: 0x0, symName: __ZN8VectSort9debugModeEiii, symObjAddr: 0x3A68, symBinAddr: 0x10000BB58, symSize: 0x3CC }
  - { offset: 0x2D802, size: 0x8, addend: 0x0, symName: __ZNSt3__16vectorIiNS_9allocatorIiEEEixB8ne180100Em, symObjAddr: 0x3E34, symBinAddr: 0x10000BF24, symSize: 0x6C }
  - { offset: 0x2D887, size: 0x8, addend: 0x0, symName: __ZNSt3__16vectorIiNS_9allocatorIiEEEixB8ne180100Em, symObjAddr: 0x3E34, symBinAddr: 0x10000BF24, symSize: 0x6C }
  - { offset: 0x2D88F, size: 0x8, addend: 0x0, symName: __ZNK8VectSort11debugInsertERNSt3__16vectorIiNS0_9allocatorIiEEEES5_, symObjAddr: 0x3EA0, symBinAddr: 0x10000BF90, symSize: 0x2E8 }
  - { offset: 0x2D8CE, size: 0x8, addend: 0x0, symName: __ZNK8VectSort11debugInsertERNSt3__16vectorIiNS0_9allocatorIiEEEES5_, symObjAddr: 0x3EA0, symBinAddr: 0x10000BF90, symSize: 0x2E8 }
  - { offset: 0x2D8D6, size: 0x8, addend: 0x0, symName: __ZNK8VectSort10jacobsthalEm, symObjAddr: 0x4188, symBinAddr: 0x10000C278, symSize: 0x68C }
  - { offset: 0x2D96E, size: 0x8, addend: 0x0, symName: __ZNK8VectSort10jacobsthalEm, symObjAddr: 0x4188, symBinAddr: 0x10000C278, symSize: 0x68C }
  - { offset: 0x2D976, size: 0x8, addend: 0x0, symName: __ZNSt3__16vectorIlNS_9allocatorIlEEEC1B8ne180100Ev, symObjAddr: 0x4814, symBinAddr: 0x10000C904, symSize: 0x2C }
  - { offset: 0x2D9F5, size: 0x8, addend: 0x0, symName: __ZNSt3__16vectorIlNS_9allocatorIlEEEC1B8ne180100Ev, symObjAddr: 0x4814, symBinAddr: 0x10000C904, symSize: 0x2C }
  - { offset: 0x2D9FD, size: 0x8, addend: 0x0, symName: __ZNSt3__16vectorIlNS_9allocatorIlEEE9push_backB8ne180100EOl, symObjAddr: 0x4840, symBinAddr: 0x10000C930, symSize: 0x140 }
  - { offset: 0x2DA2A, size: 0x8, addend: 0x0, symName: __ZNSt3__16vectorIlNS_9allocatorIlEEE9push_backB8ne180100EOl, symObjAddr: 0x4840, symBinAddr: 0x10000C930, symSize: 0x140 }
  - { offset: 0x2DA32, size: 0x8, addend: 0x0, symName: __ZNSt3__16vectorIlNS_9allocatorIlEEEixB8ne180100Em, symObjAddr: 0x4980, symBinAddr: 0x10000CA70, symSize: 0x6C }
  - { offset: 0x2DA83, size: 0x8, addend: 0x0, symName: __ZNSt3__16vectorIlNS_9allocatorIlEEEixB8ne180100Em, symObjAddr: 0x4980, symBinAddr: 0x10000CA70, symSize: 0x6C }
  - { offset: 0x2DA8B, size: 0x8, addend: 0x0, symName: __ZNKSt3__16vectorIlNS_9allocatorIlEEE4sizeB8ne180100Ev, symObjAddr: 0x49EC, symBinAddr: 0x10000CADC, symSize: 0xB0 }
  - { offset: 0x2DAC9, size: 0x8, addend: 0x0, symName: __ZNKSt3__16vectorIlNS_9allocatorIlEEE4sizeB8ne180100Ev, symObjAddr: 0x49EC, symBinAddr: 0x10000CADC, symSize: 0xB0 }
  - { offset: 0x2DAD1, size: 0x8, addend: 0x0, symName: __ZNSt3__16vectorIlNS_9allocatorIlEEED1B8ne180100Ev, symObjAddr: 0x4A9C, symBinAddr: 0x10000CB8C, symSize: 0x2C }
  - { offset: 0x2DAFA, size: 0x8, addend: 0x0, symName: __ZNSt3__16vectorIlNS_9allocatorIlEEED1B8ne180100Ev, symObjAddr: 0x4A9C, symBinAddr: 0x10000CB8C, symSize: 0x2C }
  - { offset: 0x2DB02, size: 0x8, addend: 0x0, symName: __ZN8VectSort11debugBinaryERNSt3__16vectorIiNS0_9allocatorIiEEEENS0_11__wrap_iterIPiEES8_S8_S8_S8_ii, symObjAddr: 0x4AC8, symBinAddr: 0x10000CBB8, symSize: 0x12B0 }
  - { offset: 0x2DB30, size: 0x8, addend: 0x0, symName: __ZN8VectSort11debugBinaryERNSt3__16vectorIiNS0_9allocatorIiEEEENS0_11__wrap_iterIPiEES8_S8_S8_S8_ii, symObjAddr: 0x4AC8, symBinAddr: 0x10000CBB8, symSize: 0x12B0 }
  - { offset: 0x2DB38, size: 0x8, addend: 0x0, symName: __ZNKSt3__111__wrap_iterIPiEdeB8ne180100Ev, symObjAddr: 0x5D78, symBinAddr: 0x10000DE68, symSize: 0x60 }
  - { offset: 0x2DCA9, size: 0x8, addend: 0x0, symName: __ZNKSt3__111__wrap_iterIPiEdeB8ne180100Ev, symObjAddr: 0x5D78, symBinAddr: 0x10000DE68, symSize: 0x60 }
  - { offset: 0x2DCB1, size: 0x8, addend: 0x0, symName: __ZNSt3__16vectorIiNS_9allocatorIiEEE5beginB8ne180100Ev, symObjAddr: 0x5DD8, symBinAddr: 0x10000DEC8, symSize: 0x260 }
  - { offset: 0x2DCDA, size: 0x8, addend: 0x0, symName: __ZNSt3__16vectorIiNS_9allocatorIiEEE5beginB8ne180100Ev, symObjAddr: 0x5DD8, symBinAddr: 0x10000DEC8, symSize: 0x260 }
  - { offset: 0x2DCE2, size: 0x8, addend: 0x0, symName: __ZNSt3__1neB8ne180100IPiEEbRKNS_11__wrap_iterIT_EES6_, symObjAddr: 0x6038, symBinAddr: 0x10000E128, symSize: 0x34 }
  - { offset: 0x2DD0E, size: 0x8, addend: 0x0, symName: __ZNSt3__16vectorIiNS_9allocatorIiEEE3endB8ne180100Ev, symObjAddr: 0x606C, symBinAddr: 0x10000E15C, symSize: 0x264 }
  - { offset: 0x2DD16, size: 0x8, addend: 0x0, symName: __ZNSt3__1eqB8ne180100IPiEEbRKNS_11__wrap_iterIT_EES6_, symObjAddr: 0x62D0, symBinAddr: 0x10000E3C0, symSize: 0x48 }
  - { offset: 0x2DD42, size: 0x8, addend: 0x0, symName: __ZNKSt3__111__wrap_iterIPiEplB8ne180100El, symObjAddr: 0x6318, symBinAddr: 0x10000E408, symSize: 0x204 }
  - { offset: 0x2DD4A, size: 0x8, addend: 0x0, symName: __ZNSt3__111__wrap_iterIPiEppB8ne180100Ei, symObjAddr: 0x651C, symBinAddr: 0x10000E60C, symSize: 0x204 }
  - { offset: 0x2DD9D, size: 0x8, addend: 0x0, symName: __ZNSt3__111__wrap_iterIPiEppB8ne180100Ei, symObjAddr: 0x651C, symBinAddr: 0x10000E60C, symSize: 0x204 }
  - { offset: 0x2DDA5, size: 0x8, addend: 0x0, symName: __ZN8VectSort12binarySearchERNSt3__16vectorIiNS0_9allocatorIiEEEENS0_11__wrap_iterIPiEES8_S8_S8_, symObjAddr: 0x6720, symBinAddr: 0x10000E810, symSize: 0x21F0 }
  - { offset: 0x2DDF5, size: 0x8, addend: 0x0, symName: __ZN8VectSort12binarySearchERNSt3__16vectorIiNS0_9allocatorIiEEEENS0_11__wrap_iterIPiEES8_S8_S8_, symObjAddr: 0x6720, symBinAddr: 0x10000E810, symSize: 0x21F0 }
  - { offset: 0x2DDFD, size: 0x8, addend: 0x0, symName: __ZNSt3__18distanceB8ne180100INS_11__wrap_iterIPiEEEENS_15iterator_traitsIT_E15difference_typeES5_S5_, symObjAddr: 0x8910, symBinAddr: 0x100010A00, symSize: 0x348 }
  - { offset: 0x2DEBF, size: 0x8, addend: 0x0, symName: __ZNKSt3__111__wrap_iterIPiEmiB8ne180100El, symObjAddr: 0x8C58, symBinAddr: 0x100010D48, symSize: 0x23C }
  - { offset: 0x2DEC7, size: 0x8, addend: 0x0, symName: __ZNSt3__16vectorIiNS_9allocatorIiEEE6insertINS_11__wrap_iterIPiEELi0EEES7_NS5_IPKiEET_SB_, symObjAddr: 0x8E94, symBinAddr: 0x100010F84, symSize: 0x54C }
  - { offset: 0x2DF04, size: 0x8, addend: 0x0, symName: __ZNSt3__16vectorIiNS_9allocatorIiEEE6insertINS_11__wrap_iterIPiEELi0EEES7_NS5_IPKiEET_SB_, symObjAddr: 0x8E94, symBinAddr: 0x100010F84, symSize: 0x54C }
  - { offset: 0x2DF0C, size: 0x8, addend: 0x0, symName: __ZNSt3__111__wrap_iterIPKiEC1B8ne180100IPiLi0EEERKNS0_IT_EE, symObjAddr: 0x93E0, symBinAddr: 0x1000114D0, symSize: 0x34 }
  - { offset: 0x2DF9E, size: 0x8, addend: 0x0, symName: __ZNSt3__111__wrap_iterIPKiEC1B8ne180100IPiLi0EEERKNS0_IT_EE, symObjAddr: 0x93E0, symBinAddr: 0x1000114D0, symSize: 0x34 }
  - { offset: 0x2DFA6, size: 0x8, addend: 0x0, symName: __ZN8VectSort20standardBinarySearchERNSt3__16vectorIiNS0_9allocatorIiEEEES5_, symObjAddr: 0x9414, symBinAddr: 0x100011504, symSize: 0x844 }
  - { offset: 0x2DFFD, size: 0x8, addend: 0x0, symName: __ZN8VectSort20standardBinarySearchERNSt3__16vectorIiNS0_9allocatorIiEEEES5_, symObjAddr: 0x9414, symBinAddr: 0x100011504, symSize: 0x844 }
  - { offset: 0x2E005, size: 0x8, addend: 0x0, symName: __ZNKSt3__16vectorIiNS_9allocatorIiEEE5emptyB8ne180100Ev, symObjAddr: 0x9C58, symBinAddr: 0x100011D48, symSize: 0xB0 }
  - { offset: 0x2E0AE, size: 0x8, addend: 0x0, symName: __ZNKSt3__16vectorIiNS_9allocatorIiEEE5emptyB8ne180100Ev, symObjAddr: 0x9C58, symBinAddr: 0x100011D48, symSize: 0xB0 }
  - { offset: 0x2E0B6, size: 0x8, addend: 0x0, symName: __ZNSt3__111__wrap_iterIPiEmIB8ne180100El, symObjAddr: 0x9D08, symBinAddr: 0x100011DF8, symSize: 0x3C }
  - { offset: 0x2E0DF, size: 0x8, addend: 0x0, symName: __ZNSt3__111__wrap_iterIPiEmIB8ne180100El, symObjAddr: 0x9D08, symBinAddr: 0x100011DF8, symSize: 0x3C }
  - { offset: 0x2E0E7, size: 0x8, addend: 0x0, symName: __ZNSt3__16vectorIiNS_9allocatorIiEEE8pop_backEv, symObjAddr: 0x9D44, symBinAddr: 0x100011E34, symSize: 0x6C }
  - { offset: 0x2E122, size: 0x8, addend: 0x0, symName: __ZNSt3__16vectorIiNS_9allocatorIiEEE8pop_backEv, symObjAddr: 0x9D44, symBinAddr: 0x100011E34, symSize: 0x6C }
  - { offset: 0x2E12A, size: 0x8, addend: 0x0, symName: __ZN8VectSort22jacobsthalBinarySearchERNSt3__16vectorIiNS0_9allocatorIiEEEES5_RNS0_11__wrap_iterIPlEE, symObjAddr: 0x9DB0, symBinAddr: 0x100011EA0, symSize: 0x119C }
  - { offset: 0x2E156, size: 0x8, addend: 0x0, symName: __ZN8VectSort22jacobsthalBinarySearchERNSt3__16vectorIiNS0_9allocatorIiEEEES5_RNS0_11__wrap_iterIPlEE, symObjAddr: 0x9DB0, symBinAddr: 0x100011EA0, symSize: 0x119C }
  - { offset: 0x2E15E, size: 0x8, addend: 0x0, symName: __ZNKSt3__111__wrap_iterIPlEdeB8ne180100Ev, symObjAddr: 0xAF4C, symBinAddr: 0x10001303C, symSize: 0x60 }
  - { offset: 0x2E2B0, size: 0x8, addend: 0x0, symName: __ZNKSt3__111__wrap_iterIPlEdeB8ne180100Ev, symObjAddr: 0xAF4C, symBinAddr: 0x10001303C, symSize: 0x60 }
  - { offset: 0x2E2B8, size: 0x8, addend: 0x0, symName: __ZNKSt3__111__wrap_iterIPlEmiB8ne180100El, symObjAddr: 0xAFAC, symBinAddr: 0x10001309C, symSize: 0x23C }
  - { offset: 0x2E2E1, size: 0x8, addend: 0x0, symName: __ZNKSt3__111__wrap_iterIPlEmiB8ne180100El, symObjAddr: 0xAFAC, symBinAddr: 0x10001309C, symSize: 0x23C }
  - { offset: 0x2E2E9, size: 0x8, addend: 0x0, symName: __ZNSt3__16vectorIiNS_9allocatorIiEEE5eraseENS_11__wrap_iterIPKiEES7_, symObjAddr: 0xB1E8, symBinAddr: 0x1000132D8, symSize: 0x478 }
  - { offset: 0x2E326, size: 0x8, addend: 0x0, symName: __ZNSt3__16vectorIiNS_9allocatorIiEEE5eraseENS_11__wrap_iterIPKiEES7_, symObjAddr: 0xB1E8, symBinAddr: 0x1000132D8, symSize: 0x478 }
  - { offset: 0x2E32E, size: 0x8, addend: 0x0, symName: __ZNSt3__111__wrap_iterIPlEppB8ne180100Ei, symObjAddr: 0xB660, symBinAddr: 0x100013750, symSize: 0x204 }
  - { offset: 0x2E39C, size: 0x8, addend: 0x0, symName: __ZNSt3__111__wrap_iterIPlEppB8ne180100Ei, symObjAddr: 0xB660, symBinAddr: 0x100013750, symSize: 0x204 }
  - { offset: 0x2E3A4, size: 0x8, addend: 0x0, symName: __ZN8VectSort4sortERNSt3__16vectorIiNS0_9allocatorIiEEEES5_S5_, symObjAddr: 0xB864, symBinAddr: 0x100013954, symSize: 0xA6C }
  - { offset: 0x2E3F4, size: 0x8, addend: 0x0, symName: __ZN8VectSort4sortERNSt3__16vectorIiNS0_9allocatorIiEEEES5_S5_, symObjAddr: 0xB864, symBinAddr: 0x100013954, symSize: 0xA6C }
  - { offset: 0x2E3FC, size: 0x8, addend: 0x0, symName: __ZNSt3__14findB8ne180100INS_11__wrap_iterIPlEEiEET_S4_S4_RKT0_, symObjAddr: 0xC2D0, symBinAddr: 0x1000143C0, symSize: 0x4A4 }
  - { offset: 0x2E4D7, size: 0x8, addend: 0x0, symName: __ZNSt3__16vectorIlNS_9allocatorIlEEE5beginB8ne180100Ev, symObjAddr: 0xC774, symBinAddr: 0x100014864, symSize: 0x260 }
  - { offset: 0x2E4DF, size: 0x8, addend: 0x0, symName: __ZNSt3__16vectorIlNS_9allocatorIlEEE3endB8ne180100Ev, symObjAddr: 0xC9D4, symBinAddr: 0x100014AC4, symSize: 0x264 }
  - { offset: 0x2E50B, size: 0x8, addend: 0x0, symName: __ZNSt3__16vectorIlNS_9allocatorIlEEE3endB8ne180100Ev, symObjAddr: 0xC9D4, symBinAddr: 0x100014AC4, symSize: 0x264 }
  - { offset: 0x2E513, size: 0x8, addend: 0x0, symName: __ZNSt3__1eqB8ne180100IPlEEbRKNS_11__wrap_iterIT_EES6_, symObjAddr: 0xCC38, symBinAddr: 0x100014D28, symSize: 0x48 }
  - { offset: 0x2E53F, size: 0x8, addend: 0x0, symName: __ZNSt3__16vectorIiNS_9allocatorIiEEE9push_backB8ne180100ERKi, symObjAddr: 0xCC80, symBinAddr: 0x100014D70, symSize: 0x140 }
  - { offset: 0x2E547, size: 0x8, addend: 0x0, symName: __ZNSt3__16vectorIiNS_9allocatorIiEEE5clearB8ne180100Ev, symObjAddr: 0xCDC0, symBinAddr: 0x100014EB0, symSize: 0x44 }
  - { offset: 0x2E598, size: 0x8, addend: 0x0, symName: __ZNSt3__16vectorIiNS_9allocatorIiEEE5clearB8ne180100Ev, symObjAddr: 0xCDC0, symBinAddr: 0x100014EB0, symSize: 0x44 }
  - { offset: 0x2E5A0, size: 0x8, addend: 0x0, symName: __ZN8VectSort6insertEv, symObjAddr: 0xCE04, symBinAddr: 0x100014EF4, symSize: 0xF94 }
  - { offset: 0x2E5DD, size: 0x8, addend: 0x0, symName: __ZN8VectSort6insertEv, symObjAddr: 0xCE04, symBinAddr: 0x100014EF4, symSize: 0xF94 }
  - { offset: 0x2E5E5, size: 0x8, addend: 0x0, symName: __ZN8VectSort5mergeEv, symObjAddr: 0xDD98, symBinAddr: 0x100015E88, symSize: 0x654 }
  - { offset: 0x2E793, size: 0x8, addend: 0x0, symName: __ZN8VectSort5mergeEv, symObjAddr: 0xDD98, symBinAddr: 0x100015E88, symSize: 0x654 }
  - { offset: 0x2E79B, size: 0x8, addend: 0x0, symName: __ZN8VectSort11FordJonhsonEv, symObjAddr: 0xE3EC, symBinAddr: 0x1000164DC, symSize: 0x454 }
  - { offset: 0x2E871, size: 0x8, addend: 0x0, symName: __ZN8VectSort11FordJonhsonEv, symObjAddr: 0xE3EC, symBinAddr: 0x1000164DC, symSize: 0x454 }
  - { offset: 0x2E879, size: 0x8, addend: 0x0, symName: __ZN8VectSort8setDebugEi, symObjAddr: 0xE840, symBinAddr: 0x100016930, symSize: 0x20 }
  - { offset: 0x2E8E7, size: 0x8, addend: 0x0, symName: __ZN8VectSort8setDebugEi, symObjAddr: 0xE840, symBinAddr: 0x100016930, symSize: 0x20 }
  - { offset: 0x2E8EF, size: 0x8, addend: 0x0, symName: __ZN9DequeSortC2EPc, symObjAddr: 0xE860, symBinAddr: 0x100016950, symSize: 0xA80 }
  - { offset: 0x2E930, size: 0x8, addend: 0x0, symName: __ZN9DequeSortC2EPc, symObjAddr: 0xE860, symBinAddr: 0x100016950, symSize: 0xA80 }
  - { offset: 0x2E938, size: 0x8, addend: 0x0, symName: __ZNSt3__15dequeIiNS_9allocatorIiEEEC1B8ne180100Ev, symObjAddr: 0xF2E0, symBinAddr: 0x1000173D0, symSize: 0x2C }
  - { offset: 0x2E9DE, size: 0x8, addend: 0x0, symName: __ZNSt3__15dequeIiNS_9allocatorIiEEEC1B8ne180100Ev, symObjAddr: 0xF2E0, symBinAddr: 0x1000173D0, symSize: 0x2C }
  - { offset: 0x2E9E6, size: 0x8, addend: 0x0, symName: __ZNSt3__15dequeIiNS_9allocatorIiEEE9push_backERKi, symObjAddr: 0xF30C, symBinAddr: 0x1000173FC, symSize: 0x2C4 }
  - { offset: 0x2EA13, size: 0x8, addend: 0x0, symName: __ZNSt3__15dequeIiNS_9allocatorIiEEE9push_backERKi, symObjAddr: 0xF30C, symBinAddr: 0x1000173FC, symSize: 0x2C4 }
  - { offset: 0x2EA1B, size: 0x8, addend: 0x0, symName: __ZNSt3__15dequeIiNS_9allocatorIiEEED1B8ne180100Ev, symObjAddr: 0xF5D0, symBinAddr: 0x1000176C0, symSize: 0x2C }
  - { offset: 0x2EA6F, size: 0x8, addend: 0x0, symName: __ZNSt3__15dequeIiNS_9allocatorIiEEED1B8ne180100Ev, symObjAddr: 0xF5D0, symBinAddr: 0x1000176C0, symSize: 0x2C }
  - { offset: 0x2EA77, size: 0x8, addend: 0x0, symName: __ZN9DequeSortC1EPc, symObjAddr: 0xF5FC, symBinAddr: 0x1000176EC, symSize: 0x34 }
  - { offset: 0x2EAA5, size: 0x8, addend: 0x0, symName: __ZN9DequeSortC1EPc, symObjAddr: 0xF5FC, symBinAddr: 0x1000176EC, symSize: 0x34 }
  - { offset: 0x2EAAD, size: 0x8, addend: 0x0, symName: __ZN9DequeSortD2Ev, symObjAddr: 0xF630, symBinAddr: 0x100017720, symSize: 0x2C }
  - { offset: 0x2EAF1, size: 0x8, addend: 0x0, symName: __ZN9DequeSortD2Ev, symObjAddr: 0xF630, symBinAddr: 0x100017720, symSize: 0x2C }
  - { offset: 0x2EAF9, size: 0x8, addend: 0x0, symName: __ZN9DequeSortD1Ev, symObjAddr: 0xF65C, symBinAddr: 0x10001774C, symSize: 0x2C }
  - { offset: 0x2EB2A, size: 0x8, addend: 0x0, symName: __ZN9DequeSortD1Ev, symObjAddr: 0xF65C, symBinAddr: 0x10001774C, symSize: 0x2C }
  - { offset: 0x2EB32, size: 0x8, addend: 0x0, symName: __ZNK9DequeSort11endSortInfoEv, symObjAddr: 0xF688, symBinAddr: 0x100017778, symSize: 0x528 }
  - { offset: 0x2EB63, size: 0x8, addend: 0x0, symName: __ZNK9DequeSort11endSortInfoEv, symObjAddr: 0xF688, symBinAddr: 0x100017778, symSize: 0x528 }
  - { offset: 0x2EB6B, size: 0x8, addend: 0x0, symName: __ZNKSt3__15dequeIiNS_9allocatorIiEEE5beginB8ne180100Ev, symObjAddr: 0xFBB0, symBinAddr: 0x100017CA0, symSize: 0x37C }
  - { offset: 0x2EBEC, size: 0x8, addend: 0x0, symName: __ZNKSt3__15dequeIiNS_9allocatorIiEEE5beginB8ne180100Ev, symObjAddr: 0xFBB0, symBinAddr: 0x100017CA0, symSize: 0x37C }
  - { offset: 0x2EBF4, size: 0x8, addend: 0x0, symName: __ZNKSt3__15dequeIiNS_9allocatorIiEEE3endB8ne180100Ev, symObjAddr: 0xFF2C, symBinAddr: 0x10001801C, symSize: 0x2F8 }
  - { offset: 0x2EC32, size: 0x8, addend: 0x0, symName: __ZNKSt3__15dequeIiNS_9allocatorIiEEE3endB8ne180100Ev, symObjAddr: 0xFF2C, symBinAddr: 0x10001801C, symSize: 0x2F8 }
  - { offset: 0x2EC3A, size: 0x8, addend: 0x0, symName: __ZNSt3__1neB8ne180100ERKNS_16__deque_iteratorIiPKiRS1_PKS2_lLl1024EEES8_, symObjAddr: 0x10224, symBinAddr: 0x100018314, symSize: 0x34 }
  - { offset: 0x2EC8C, size: 0x8, addend: 0x0, symName: __ZNKSt3__116__deque_iteratorIiPKiRS1_PKS2_lLl1024EEdeB8ne180100Ev, symObjAddr: 0x10258, symBinAddr: 0x100018348, symSize: 0x64 }
  - { offset: 0x2EC94, size: 0x8, addend: 0x0, symName: __ZNSt3__116__deque_iteratorIiPKiRS1_PKS2_lLl1024EEppB8ne180100Ei, symObjAddr: 0x102BC, symBinAddr: 0x1000183AC, symSize: 0x210 }
  - { offset: 0x2ECBD, size: 0x8, addend: 0x0, symName: __ZNSt3__116__deque_iteratorIiPKiRS1_PKS2_lLl1024EEppB8ne180100Ei, symObjAddr: 0x102BC, symBinAddr: 0x1000183AC, symSize: 0x210 }
  - { offset: 0x2ECC5, size: 0x8, addend: 0x0, symName: __ZNKSt3__15dequeIiNS_9allocatorIiEEE4sizeB8ne180100Ev, symObjAddr: 0x104CC, symBinAddr: 0x1000185BC, symSize: 0x6C }
  - { offset: 0x2ED16, size: 0x8, addend: 0x0, symName: __ZNKSt3__15dequeIiNS_9allocatorIiEEE4sizeB8ne180100Ev, symObjAddr: 0x104CC, symBinAddr: 0x1000185BC, symSize: 0x6C }
  - { offset: 0x2ED1E, size: 0x8, addend: 0x0, symName: __ZN9DequeSortC2ERKS_, symObjAddr: 0x10538, symBinAddr: 0x100018628, symSize: 0x34 }
  - { offset: 0x2ED48, size: 0x8, addend: 0x0, symName: __ZN9DequeSortC2ERKS_, symObjAddr: 0x10538, symBinAddr: 0x100018628, symSize: 0x34 }
  - { offset: 0x2ED50, size: 0x8, addend: 0x0, symName: __ZNSt3__15dequeIiNS_9allocatorIiEEEC1ERKS3_, symObjAddr: 0x1056C, symBinAddr: 0x10001865C, symSize: 0x34 }
  - { offset: 0x2ED94, size: 0x8, addend: 0x0, symName: __ZNSt3__15dequeIiNS_9allocatorIiEEEC1ERKS3_, symObjAddr: 0x1056C, symBinAddr: 0x10001865C, symSize: 0x34 }
  - { offset: 0x2ED9C, size: 0x8, addend: 0x0, symName: __ZN9DequeSortC1ERKS_, symObjAddr: 0x105A0, symBinAddr: 0x100018690, symSize: 0x34 }
  - { offset: 0x2EDDF, size: 0x8, addend: 0x0, symName: __ZN9DequeSortC1ERKS_, symObjAddr: 0x105A0, symBinAddr: 0x100018690, symSize: 0x34 }
  - { offset: 0x2EDE7, size: 0x8, addend: 0x0, symName: __ZNK9DequeSort5printEv, symObjAddr: 0x105D4, symBinAddr: 0x1000186C4, symSize: 0x430 }
  - { offset: 0x2EE2B, size: 0x8, addend: 0x0, symName: __ZNK9DequeSort5printEv, symObjAddr: 0x105D4, symBinAddr: 0x1000186C4, symSize: 0x430 }
  - { offset: 0x2EE33, size: 0x8, addend: 0x0, symName: __ZN9DequeSortaSERKS_, symObjAddr: 0x10A04, symBinAddr: 0x100018AF4, symSize: 0x50 }
  - { offset: 0x2EEA1, size: 0x8, addend: 0x0, symName: __ZN9DequeSortaSERKS_, symObjAddr: 0x10A04, symBinAddr: 0x100018AF4, symSize: 0x50 }
  - { offset: 0x2EEA9, size: 0x8, addend: 0x0, symName: __ZNSt3__15dequeIiNS_9allocatorIiEEEaSERKS3_, symObjAddr: 0x10A54, symBinAddr: 0x100018B44, symSize: 0x2F8 }
  - { offset: 0x2EEE8, size: 0x8, addend: 0x0, symName: __ZNSt3__15dequeIiNS_9allocatorIiEEEaSERKS3_, symObjAddr: 0x10A54, symBinAddr: 0x100018B44, symSize: 0x2F8 }
  - { offset: 0x2EEF0, size: 0x8, addend: 0x0, symName: __ZNK9DequeSort8debugCmdEPcPS0_, symObjAddr: 0x10D4C, symBinAddr: 0x100018E3C, symSize: 0x3B8 }
  - { offset: 0x2EF31, size: 0x8, addend: 0x0, symName: __ZNK9DequeSort8debugCmdEPcPS0_, symObjAddr: 0x10D4C, symBinAddr: 0x100018E3C, symSize: 0x3B8 }
  - { offset: 0x2EF39, size: 0x8, addend: 0x0, symName: __ZN9DequeSort9debugModeEiii, symObjAddr: 0x11104, symBinAddr: 0x1000191F4, symSize: 0x3A0 }
  - { offset: 0x2EFCC, size: 0x8, addend: 0x0, symName: __ZN9DequeSort9debugModeEiii, symObjAddr: 0x11104, symBinAddr: 0x1000191F4, symSize: 0x3A0 }
  - { offset: 0x2EFD4, size: 0x8, addend: 0x0, symName: __ZNSt3__15dequeIiNS_9allocatorIiEEEixEm, symObjAddr: 0x114A4, symBinAddr: 0x100019594, symSize: 0xDC }
  - { offset: 0x2F05E, size: 0x8, addend: 0x0, symName: __ZNSt3__15dequeIiNS_9allocatorIiEEEixEm, symObjAddr: 0x114A4, symBinAddr: 0x100019594, symSize: 0xDC }
  - { offset: 0x2F066, size: 0x8, addend: 0x0, symName: __ZNK9DequeSort11debugInsertERNSt3__15dequeIiNS0_9allocatorIiEEEES5_S5_, symObjAddr: 0x11580, symBinAddr: 0x100019670, symSize: 0x41C }
  - { offset: 0x2F0B8, size: 0x8, addend: 0x0, symName: __ZNK9DequeSort11debugInsertERNSt3__15dequeIiNS0_9allocatorIiEEEES5_S5_, symObjAddr: 0x11580, symBinAddr: 0x100019670, symSize: 0x41C }
  - { offset: 0x2F0C0, size: 0x8, addend: 0x0, symName: __ZN9DequeSort6insertEv, symObjAddr: 0x1199C, symBinAddr: 0x100019A8C, symSize: 0xC20 }
  - { offset: 0x2F195, size: 0x8, addend: 0x0, symName: __ZN9DequeSort6insertEv, symObjAddr: 0x1199C, symBinAddr: 0x100019A8C, symSize: 0xC20 }
  - { offset: 0x2F19D, size: 0x8, addend: 0x0, symName: __ZN9DequeSort5mergeEv, symObjAddr: 0x125BC, symBinAddr: 0x10001A6AC, symSize: 0x654 }
  - { offset: 0x2F2FF, size: 0x8, addend: 0x0, symName: __ZN9DequeSort5mergeEv, symObjAddr: 0x125BC, symBinAddr: 0x10001A6AC, symSize: 0x654 }
  - { offset: 0x2F307, size: 0x8, addend: 0x0, symName: __ZN9DequeSort11FordJonhsonEv, symObjAddr: 0x12C10, symBinAddr: 0x10001AD00, symSize: 0x474 }
  - { offset: 0x2F3DD, size: 0x8, addend: 0x0, symName: __ZN9DequeSort11FordJonhsonEv, symObjAddr: 0x12C10, symBinAddr: 0x10001AD00, symSize: 0x474 }
  - { offset: 0x2F3E5, size: 0x8, addend: 0x0, symName: __ZNSt3__15dequeIiNS_9allocatorIiEEE5beginB8ne180100Ev, symObjAddr: 0x13084, symBinAddr: 0x10001B174, symSize: 0x320 }
  - { offset: 0x2F452, size: 0x8, addend: 0x0, symName: __ZNSt3__15dequeIiNS_9allocatorIiEEE5beginB8ne180100Ev, symObjAddr: 0x13084, symBinAddr: 0x10001B174, symSize: 0x320 }
  - { offset: 0x2F45A, size: 0x8, addend: 0x0, symName: __ZNSt3__15dequeIiNS_9allocatorIiEEE3endB8ne180100Ev, symObjAddr: 0x133A4, symBinAddr: 0x10001B494, symSize: 0x2F8 }
  - { offset: 0x2F498, size: 0x8, addend: 0x0, symName: __ZNSt3__15dequeIiNS_9allocatorIiEEE3endB8ne180100Ev, symObjAddr: 0x133A4, symBinAddr: 0x10001B494, symSize: 0x2F8 }
  - { offset: 0x2F4A0, size: 0x8, addend: 0x0, symName: __ZNSt3__1neB8ne180100ERKNS_16__deque_iteratorIiPiRiPS1_lLl1024EEES6_, symObjAddr: 0x1369C, symBinAddr: 0x10001B78C, symSize: 0x34 }
  - { offset: 0x2F4F2, size: 0x8, addend: 0x0, symName: __ZNKSt3__116__deque_iteratorIiPiRiPS1_lLl1024EEdeB8ne180100Ev, symObjAddr: 0x136D0, symBinAddr: 0x10001B7C0, symSize: 0x64 }
  - { offset: 0x2F4FA, size: 0x8, addend: 0x0, symName: __ZNSt3__116__deque_iteratorIiPiRiPS1_lLl1024EEppB8ne180100Ei, symObjAddr: 0x13734, symBinAddr: 0x10001B824, symSize: 0x210 }
  - { offset: 0x2F523, size: 0x8, addend: 0x0, symName: __ZNSt3__116__deque_iteratorIiPiRiPS1_lLl1024EEppB8ne180100Ei, symObjAddr: 0x13734, symBinAddr: 0x10001B824, symSize: 0x210 }
  - { offset: 0x2F52B, size: 0x8, addend: 0x0, symName: __ZN9DequeSort8setDebugEi, symObjAddr: 0x13944, symBinAddr: 0x10001BA34, symSize: 0x20 }
  - { offset: 0x2F57D, size: 0x8, addend: 0x0, symName: __ZN9DequeSort8setDebugEi, symObjAddr: 0x13944, symBinAddr: 0x10001BA34, symSize: 0x20 }
  - { offset: 0x2F585, size: 0x8, addend: 0x0, symName: __ZNSt3__118basic_stringstreamIcNS_11char_traitsIcEENS_9allocatorIcEEED2Ev, symObjAddr: 0x13964, symBinAddr: 0x10001BA54, symSize: 0x258 }
  - { offset: 0x2F5C6, size: 0x8, addend: 0x0, symName: __ZNSt3__118basic_stringstreamIcNS_11char_traitsIcEENS_9allocatorIcEEED2Ev, symObjAddr: 0x13964, symBinAddr: 0x10001BA54, symSize: 0x258 }
  - { offset: 0x2F5CE, size: 0x8, addend: 0x0, symName: __ZThn16_NSt3__118basic_stringstreamIcNS_11char_traitsIcEENS_9allocatorIcEEED1Ev, symObjAddr: 0x13BBC, symBinAddr: 0x10001BCAC, symSize: 0x1C }
  - { offset: 0x2F610, size: 0x8, addend: 0x0, symName: __ZThn16_NSt3__118basic_stringstreamIcNS_11char_traitsIcEENS_9allocatorIcEEED1Ev, symObjAddr: 0x13BBC, symBinAddr: 0x10001BCAC, symSize: 0x1C }
  - { offset: 0x2F618, size: 0x8, addend: 0x0, symName: __ZTv0_n24_NSt3__118basic_stringstreamIcNS_11char_traitsIcEENS_9allocatorIcEEED1Ev, symObjAddr: 0x13BD8, symBinAddr: 0x10001BCC8, symSize: 0xB0 }
  - { offset: 0x2F62E, size: 0x8, addend: 0x0, symName: __ZTv0_n24_NSt3__118basic_stringstreamIcNS_11char_traitsIcEENS_9allocatorIcEEED1Ev, symObjAddr: 0x13BD8, symBinAddr: 0x10001BCC8, symSize: 0xB0 }
  - { offset: 0x2F636, size: 0x8, addend: 0x0, symName: __ZNSt3__115basic_stringbufIcNS_11char_traitsIcEENS_9allocatorIcEEED1Ev, symObjAddr: 0x13C88, symBinAddr: 0x10001BD78, symSize: 0x2C }
  - { offset: 0x2F654, size: 0x8, addend: 0x0, symName: __ZNSt3__115basic_stringbufIcNS_11char_traitsIcEENS_9allocatorIcEEED1Ev, symObjAddr: 0x13C88, symBinAddr: 0x10001BD78, symSize: 0x2C }
  - { offset: 0x2F65C, size: 0x8, addend: 0x0, symName: __ZNSt3__115basic_stringbufIcNS_11char_traitsIcEENS_9allocatorIcEEED2Ev, symObjAddr: 0x13CB4, symBinAddr: 0x10001BDA4, symSize: 0xBC }
  - { offset: 0x2F68D, size: 0x8, addend: 0x0, symName: __ZNSt3__115basic_stringbufIcNS_11char_traitsIcEENS_9allocatorIcEEED2Ev, symObjAddr: 0x13CB4, symBinAddr: 0x10001BDA4, symSize: 0xBC }
  - { offset: 0x2F695, size: 0x8, addend: 0x0, symName: __ZNSt3__18ios_base4setfB8ne180100Ejj, symObjAddr: 0x13D70, symBinAddr: 0x10001BE60, symSize: 0x128 }
  - { offset: 0x2F6C5, size: 0x8, addend: 0x0, symName: __ZNSt3__18ios_base4setfB8ne180100Ejj, symObjAddr: 0x13D70, symBinAddr: 0x10001BE60, symSize: 0x128 }
  - { offset: 0x2F6CD, size: 0x8, addend: 0x0, symName: __ZNSt3__18ios_base6unsetfB8ne180100Ej, symObjAddr: 0x13E98, symBinAddr: 0x10001BF88, symSize: 0xA4 }
  - { offset: 0x2F731, size: 0x8, addend: 0x0, symName: __ZNSt3__18ios_base6unsetfB8ne180100Ej, symObjAddr: 0x13E98, symBinAddr: 0x10001BF88, symSize: 0xA4 }
  - { offset: 0x2F739, size: 0x8, addend: 0x0, symName: __ZNSt3__16vectorIiNS_9allocatorIiEEEC2B8ne180100Ev, symObjAddr: 0x13F3C, symBinAddr: 0x10001C02C, symSize: 0x2C4 }
  - { offset: 0x2F777, size: 0x8, addend: 0x0, symName: __ZNSt3__16vectorIiNS_9allocatorIiEEEC2B8ne180100Ev, symObjAddr: 0x13F3C, symBinAddr: 0x10001C02C, symSize: 0x2C4 }
  - { offset: 0x2F77F, size: 0x8, addend: 0x0, symName: __ZNSt3__117__compressed_pairIPiNS_9allocatorIiEEEC1B8ne180100IDnNS_18__default_init_tagEEEOT_OT0_, symObjAddr: 0x14200, symBinAddr: 0x10001C2F0, symSize: 0x3C }
  - { offset: 0x2F7C5, size: 0x8, addend: 0x0, symName: __ZNSt3__117__compressed_pairIPiNS_9allocatorIiEEEC1B8ne180100IDnNS_18__default_init_tagEEEOT_OT0_, symObjAddr: 0x14200, symBinAddr: 0x10001C2F0, symSize: 0x3C }
  - { offset: 0x2F7CD, size: 0x8, addend: 0x0, symName: __ZNSt3__117__compressed_pairIPiNS_9allocatorIiEEEC2B8ne180100IDnNS_18__default_init_tagEEEOT_OT0_, symObjAddr: 0x1423C, symBinAddr: 0x10001C32C, symSize: 0x40 }
  - { offset: 0x2F838, size: 0x8, addend: 0x0, symName: __ZNSt3__117__compressed_pairIPiNS_9allocatorIiEEEC2B8ne180100IDnNS_18__default_init_tagEEEOT_OT0_, symObjAddr: 0x1423C, symBinAddr: 0x10001C32C, symSize: 0x40 }
  - { offset: 0x2F840, size: 0x8, addend: 0x0, symName: __ZNSt3__122__compressed_pair_elemIPiLi0ELb0EEC2B8ne180100IDnvEEOT_, symObjAddr: 0x1427C, symBinAddr: 0x10001C36C, symSize: 0x64 }
  - { offset: 0x2F8AB, size: 0x8, addend: 0x0, symName: __ZNSt3__122__compressed_pair_elemIPiLi0ELb0EEC2B8ne180100IDnvEEOT_, symObjAddr: 0x1427C, symBinAddr: 0x10001C36C, symSize: 0x64 }
  - { offset: 0x2F8B3, size: 0x8, addend: 0x0, symName: __ZNSt3__122__compressed_pair_elemINS_9allocatorIiEELi1ELb1EEC2B8ne180100ENS_18__default_init_tagE, symObjAddr: 0x142E0, symBinAddr: 0x10001C3D0, symSize: 0x2C }
  - { offset: 0x2F900, size: 0x8, addend: 0x0, symName: __ZNSt3__122__compressed_pair_elemINS_9allocatorIiEELi1ELb1EEC2B8ne180100ENS_18__default_init_tagE, symObjAddr: 0x142E0, symBinAddr: 0x10001C3D0, symSize: 0x2C }
  - { offset: 0x2F908, size: 0x8, addend: 0x0, symName: __ZNSt3__19allocatorIiEC2B8ne180100Ev, symObjAddr: 0x1430C, symBinAddr: 0x10001C3FC, symSize: 0x2C }
  - { offset: 0x2F943, size: 0x8, addend: 0x0, symName: __ZNSt3__19allocatorIiEC2B8ne180100Ev, symObjAddr: 0x1430C, symBinAddr: 0x10001C3FC, symSize: 0x2C }
  - { offset: 0x2F94B, size: 0x8, addend: 0x0, symName: __ZNSt3__116__non_trivial_ifILb1ENS_9allocatorIiEEEC2B8ne180100Ev, symObjAddr: 0x14338, symBinAddr: 0x10001C428, symSize: 0x14 }
  - { offset: 0x2F978, size: 0x8, addend: 0x0, symName: __ZNSt3__116__non_trivial_ifILb1ENS_9allocatorIiEEEC2B8ne180100Ev, symObjAddr: 0x14338, symBinAddr: 0x10001C428, symSize: 0x14 }
  - { offset: 0x2F980, size: 0x8, addend: 0x0, symName: __ZNSt3__16vectorIiNS_9allocatorIiEEED2B8ne180100Ev, symObjAddr: 0x1434C, symBinAddr: 0x10001C43C, symSize: 0x1D8 }
  - { offset: 0x2F9AE, size: 0x8, addend: 0x0, symName: __ZNSt3__16vectorIiNS_9allocatorIiEEED2B8ne180100Ev, symObjAddr: 0x1434C, symBinAddr: 0x10001C43C, symSize: 0x1D8 }
  - { offset: 0x2F9B6, size: 0x8, addend: 0x0, symName: __ZNSt3__16vectorIiNS_9allocatorIiEEE16__destroy_vectorC1B8ne180100ERS3_, symObjAddr: 0x14524, symBinAddr: 0x10001C614, symSize: 0x34 }
  - { offset: 0x2F9E4, size: 0x8, addend: 0x0, symName: __ZNSt3__16vectorIiNS_9allocatorIiEEE16__destroy_vectorC1B8ne180100ERS3_, symObjAddr: 0x14524, symBinAddr: 0x10001C614, symSize: 0x34 }
  - { offset: 0x2F9EC, size: 0x8, addend: 0x0, symName: __ZNSt3__16vectorIiNS_9allocatorIiEEE16__destroy_vectorclB8ne180100Ev, symObjAddr: 0x14558, symBinAddr: 0x10001C648, symSize: 0x228 }
  - { offset: 0x2FA2C, size: 0x8, addend: 0x0, symName: __ZNSt3__16vectorIiNS_9allocatorIiEEE16__destroy_vectorclB8ne180100Ev, symObjAddr: 0x14558, symBinAddr: 0x10001C648, symSize: 0x228 }
  - { offset: 0x2FA34, size: 0x8, addend: 0x0, symName: __ZNSt3__16vectorIiNS_9allocatorIiEEE16__destroy_vectorC2B8ne180100ERS3_, symObjAddr: 0x14780, symBinAddr: 0x10001C870, symSize: 0x70 }
  - { offset: 0x2FA5D, size: 0x8, addend: 0x0, symName: __ZNSt3__16vectorIiNS_9allocatorIiEEE16__destroy_vectorC2B8ne180100ERS3_, symObjAddr: 0x14780, symBinAddr: 0x10001C870, symSize: 0x70 }
  - { offset: 0x2FA65, size: 0x8, addend: 0x0, symName: __ZNSt3__16vectorIiNS_9allocatorIiEEE7__clearB8ne180100Ev, symObjAddr: 0x147F0, symBinAddr: 0x10001C8E0, symSize: 0x64 }
  - { offset: 0x2FAA5, size: 0x8, addend: 0x0, symName: __ZNSt3__16vectorIiNS_9allocatorIiEEE7__clearB8ne180100Ev, symObjAddr: 0x147F0, symBinAddr: 0x10001C8E0, symSize: 0x64 }
  - { offset: 0x2FAAD, size: 0x8, addend: 0x0, symName: __ZNKSt3__16vectorIiNS_9allocatorIiEEE17__annotate_deleteB8ne180100Ev, symObjAddr: 0x14854, symBinAddr: 0x10001C944, symSize: 0xA0 }
  - { offset: 0x2FAD6, size: 0x8, addend: 0x0, symName: __ZNKSt3__16vectorIiNS_9allocatorIiEEE17__annotate_deleteB8ne180100Ev, symObjAddr: 0x14854, symBinAddr: 0x10001C944, symSize: 0xA0 }
  - { offset: 0x2FADE, size: 0x8, addend: 0x0, symName: __ZNSt3__116allocator_traitsINS_9allocatorIiEEE10deallocateB8ne180100ERS2_Pim, symObjAddr: 0x148F4, symBinAddr: 0x10001C9E4, symSize: 0x34 }
  - { offset: 0x2FB07, size: 0x8, addend: 0x0, symName: __ZNSt3__116allocator_traitsINS_9allocatorIiEEE10deallocateB8ne180100ERS2_Pim, symObjAddr: 0x148F4, symBinAddr: 0x10001C9E4, symSize: 0x34 }
  - { offset: 0x2FB0F, size: 0x8, addend: 0x0, symName: __ZNSt3__16vectorIiNS_9allocatorIiEEE7__allocB8ne180100Ev, symObjAddr: 0x14928, symBinAddr: 0x10001CA18, symSize: 0x28 }
  - { offset: 0x2FB5C, size: 0x8, addend: 0x0, symName: __ZNSt3__16vectorIiNS_9allocatorIiEEE7__allocB8ne180100Ev, symObjAddr: 0x14928, symBinAddr: 0x10001CA18, symSize: 0x28 }
  - { offset: 0x2FB64, size: 0x8, addend: 0x0, symName: __ZNKSt3__16vectorIiNS_9allocatorIiEEE8capacityB8ne180100Ev, symObjAddr: 0x14950, symBinAddr: 0x10001CA40, symSize: 0xBC }
  - { offset: 0x2FB8D, size: 0x8, addend: 0x0, symName: __ZNKSt3__16vectorIiNS_9allocatorIiEEE8capacityB8ne180100Ev, symObjAddr: 0x14950, symBinAddr: 0x10001CA40, symSize: 0xBC }
  - { offset: 0x2FB95, size: 0x8, addend: 0x0, symName: __ZNSt3__16vectorIiNS_9allocatorIiEEE22__base_destruct_at_endB8ne180100EPi, symObjAddr: 0x14A0C, symBinAddr: 0x10001CAFC, symSize: 0x128 }
  - { offset: 0x2FBBE, size: 0x8, addend: 0x0, symName: __ZNSt3__16vectorIiNS_9allocatorIiEEE22__base_destruct_at_endB8ne180100EPi, symObjAddr: 0x14A0C, symBinAddr: 0x10001CAFC, symSize: 0x128 }
  - { offset: 0x2FBC6, size: 0x8, addend: 0x0, symName: __ZNSt3__116allocator_traitsINS_9allocatorIiEEE7destroyB8ne180100IivEEvRS2_PT_, symObjAddr: 0x14B34, symBinAddr: 0x10001CC24, symSize: 0x2C }
  - { offset: 0x2FC15, size: 0x8, addend: 0x0, symName: __ZNSt3__116allocator_traitsINS_9allocatorIiEEE7destroyB8ne180100IivEEvRS2_PT_, symObjAddr: 0x14B34, symBinAddr: 0x10001CC24, symSize: 0x2C }
  - { offset: 0x2FC1D, size: 0x8, addend: 0x0, symName: __ZNSt3__112__to_addressB8ne180100IiEEPT_S2_, symObjAddr: 0x14B60, symBinAddr: 0x10001CC50, symSize: 0x14 }
  - { offset: 0x2FC65, size: 0x8, addend: 0x0, symName: __ZNSt3__19allocatorIiE7destroyB8ne180100EPi, symObjAddr: 0x14B74, symBinAddr: 0x10001CC64, symSize: 0x14 }
  - { offset: 0x2FC6D, size: 0x8, addend: 0x0, symName: __ZNKSt3__16vectorIiNS_9allocatorIiEEE31__annotate_contiguous_containerB8ne180100EPKvS5_, symObjAddr: 0x14B88, symBinAddr: 0x10001CC78, symSize: 0x98 }
  - { offset: 0x2FCA9, size: 0x8, addend: 0x0, symName: __ZNKSt3__16vectorIiNS_9allocatorIiEEE31__annotate_contiguous_containerB8ne180100EPKvS5_, symObjAddr: 0x14B88, symBinAddr: 0x10001CC78, symSize: 0x98 }
  - { offset: 0x2FCB1, size: 0x8, addend: 0x0, symName: __ZNKSt3__16vectorIiNS_9allocatorIiEEE4dataB8ne180100Ev, symObjAddr: 0x14C20, symBinAddr: 0x10001CD10, symSize: 0x64 }
  - { offset: 0x2FD26, size: 0x8, addend: 0x0, symName: __ZNKSt3__16vectorIiNS_9allocatorIiEEE4dataB8ne180100Ev, symObjAddr: 0x14C20, symBinAddr: 0x10001CD10, symSize: 0x64 }
  - { offset: 0x2FD57, size: 0x8, addend: 0x0, symName: __ZNSt3__19allocatorIiE10deallocateB8ne180100EPim, symObjAddr: 0x14C90, symBinAddr: 0x10001CD74, symSize: 0x7C }
  - { offset: 0x2FD5F, size: 0x8, addend: 0x0, symName: __ZNSt3__119__libcpp_deallocateB8ne180100EPvmm, symObjAddr: 0x14D0C, symBinAddr: 0x10001CDF0, symSize: 0x30 }
  - { offset: 0x2FDAC, size: 0x8, addend: 0x0, symName: __ZNSt3__117__compressed_pairIPiNS_9allocatorIiEEE6secondB8ne180100Ev, symObjAddr: 0x14D88, symBinAddr: 0x10001CE6C, symSize: 0x24 }
  - { offset: 0x2FDB4, size: 0x8, addend: 0x0, symName: __ZNSt3__122__compressed_pair_elemINS_9allocatorIiEELi1ELb1EE5__getB8ne180100Ev, symObjAddr: 0x14DAC, symBinAddr: 0x10001CE90, symSize: 0x14 }
  - { offset: 0x2FDDD, size: 0x8, addend: 0x0, symName: __ZNSt3__122__compressed_pair_elemINS_9allocatorIiEELi1ELb1EE5__getB8ne180100Ev, symObjAddr: 0x14DAC, symBinAddr: 0x10001CE90, symSize: 0x14 }
  - { offset: 0x2FDE5, size: 0x8, addend: 0x0, symName: __ZNKSt3__16vectorIiNS_9allocatorIiEEE9__end_capB8ne180100Ev, symObjAddr: 0x14DC0, symBinAddr: 0x10001CEA4, symSize: 0x28 }
  - { offset: 0x2FE0F, size: 0x8, addend: 0x0, symName: __ZNKSt3__16vectorIiNS_9allocatorIiEEE9__end_capB8ne180100Ev, symObjAddr: 0x14DC0, symBinAddr: 0x10001CEA4, symSize: 0x28 }
  - { offset: 0x2FE17, size: 0x8, addend: 0x0, symName: __ZNKSt3__117__compressed_pairIPiNS_9allocatorIiEEE5firstB8ne180100Ev, symObjAddr: 0x14DE8, symBinAddr: 0x10001CECC, symSize: 0x24 }
  - { offset: 0x2FE40, size: 0x8, addend: 0x0, symName: __ZNKSt3__117__compressed_pairIPiNS_9allocatorIiEEE5firstB8ne180100Ev, symObjAddr: 0x14DE8, symBinAddr: 0x10001CECC, symSize: 0x24 }
  - { offset: 0x2FE48, size: 0x8, addend: 0x0, symName: __ZNKSt3__122__compressed_pair_elemIPiLi0ELb0EE5__getB8ne180100Ev, symObjAddr: 0x14E0C, symBinAddr: 0x10001CEF0, symSize: 0x14 }
  - { offset: 0x2FE71, size: 0x8, addend: 0x0, symName: __ZNKSt3__122__compressed_pair_elemIPiLi0ELb0EE5__getB8ne180100Ev, symObjAddr: 0x14E0C, symBinAddr: 0x10001CEF0, symSize: 0x14 }
  - { offset: 0x2FEA3, size: 0x8, addend: 0x0, symName: __ZNSt3__19basic_iosIcNS_11char_traitsIcEEEC2B8ne180100Ev, symObjAddr: 0x15198, symBinAddr: 0x10001CF04, symSize: 0x7C }
  - { offset: 0x2FEAB, size: 0x8, addend: 0x0, symName: __ZNSt3__114basic_iostreamIcNS_11char_traitsIcEEEC2B8ne180100EPNS_15basic_streambufIcS2_EE, symObjAddr: 0x15214, symBinAddr: 0x10001CF80, symSize: 0x268 }
  - { offset: 0x2FED8, size: 0x8, addend: 0x0, symName: __ZNSt3__114basic_iostreamIcNS_11char_traitsIcEEEC2B8ne180100EPNS_15basic_streambufIcS2_EE, symObjAddr: 0x15214, symBinAddr: 0x10001CF80, symSize: 0x268 }
  - { offset: 0x2FEE0, size: 0x8, addend: 0x0, symName: __ZNSt3__115basic_stringbufIcNS_11char_traitsIcEENS_9allocatorIcEEEC1B8ne180100ERKNS_12basic_stringIcS2_S4_EEj, symObjAddr: 0x1547C, symBinAddr: 0x10001D1E8, symSize: 0x3C }
  - { offset: 0x2FF31, size: 0x8, addend: 0x0, symName: __ZNSt3__115basic_stringbufIcNS_11char_traitsIcEENS_9allocatorIcEEEC1B8ne180100ERKNS_12basic_stringIcS2_S4_EEj, symObjAddr: 0x1547C, symBinAddr: 0x10001D1E8, symSize: 0x3C }
  - { offset: 0x2FF39, size: 0x8, addend: 0x0, symName: __ZNSt3__18ios_baseC2B8ne180100Ev, symObjAddr: 0x154B8, symBinAddr: 0x10001D224, symSize: 0x6C }
  - { offset: 0x2FF8C, size: 0x8, addend: 0x0, symName: __ZNSt3__18ios_baseC2B8ne180100Ev, symObjAddr: 0x154B8, symBinAddr: 0x10001D224, symSize: 0x6C }
  - { offset: 0x2FF94, size: 0x8, addend: 0x0, symName: __ZNSt3__113basic_istreamIcNS_11char_traitsIcEEEC2B8ne180100EPNS_15basic_streambufIcS2_EE, symObjAddr: 0x15524, symBinAddr: 0x10001D290, symSize: 0x20C }
  - { offset: 0x2FFC1, size: 0x8, addend: 0x0, symName: __ZNSt3__113basic_istreamIcNS_11char_traitsIcEEEC2B8ne180100EPNS_15basic_streambufIcS2_EE, symObjAddr: 0x15524, symBinAddr: 0x10001D290, symSize: 0x20C }
  - { offset: 0x2FFC9, size: 0x8, addend: 0x0, symName: __ZNSt3__113basic_ostreamIcNS_11char_traitsIcEEEC2B8ne180100Ev, symObjAddr: 0x15730, symBinAddr: 0x10001D49C, symSize: 0x17C }
  - { offset: 0x30019, size: 0x8, addend: 0x0, symName: __ZNSt3__113basic_ostreamIcNS_11char_traitsIcEEEC2B8ne180100Ev, symObjAddr: 0x15730, symBinAddr: 0x10001D49C, symSize: 0x17C }
  - { offset: 0x30021, size: 0x8, addend: 0x0, symName: __ZNSt3__19basic_iosIcNS_11char_traitsIcEEE4initB8ne180100EPNS_15basic_streambufIcS2_EE, symObjAddr: 0x158AC, symBinAddr: 0x10001D618, symSize: 0xEC }
  - { offset: 0x3005F, size: 0x8, addend: 0x0, symName: __ZNSt3__19basic_iosIcNS_11char_traitsIcEEE4initB8ne180100EPNS_15basic_streambufIcS2_EE, symObjAddr: 0x158AC, symBinAddr: 0x10001D618, symSize: 0xEC }
  - { offset: 0x300A5, size: 0x8, addend: 0x0, symName: __ZNSt3__115basic_stringbufIcNS_11char_traitsIcEENS_9allocatorIcEEEC2B8ne180100ERKNS_12basic_stringIcS2_S4_EEj, symObjAddr: 0x159A0, symBinAddr: 0x10001D704, symSize: 0x418 }
  - { offset: 0x30103, size: 0x8, addend: 0x0, symName: __ZNSt3__112basic_stringIcNS_11char_traitsIcEENS_9allocatorIcEEEC1B8ne180100ERKS4_, symObjAddr: 0x15DDC, symBinAddr: 0x10001DB1C, symSize: 0x34 }
  - { offset: 0x3014B, size: 0x8, addend: 0x0, symName: __ZNSt3__112basic_stringIcNS_11char_traitsIcEENS_9allocatorIcEEEC2B8ne180100ERKS4_, symObjAddr: 0x15E6C, symBinAddr: 0x10001DB50, symSize: 0x1EC }
  - { offset: 0x30153, size: 0x8, addend: 0x0, symName: __ZNSt3__117__compressed_pairINS_12basic_stringIcNS_11char_traitsIcEENS_9allocatorIcEEE5__repES5_EC1B8ne180100INS_16__value_init_tagERKS5_EEOT_OT0_, symObjAddr: 0x16058, symBinAddr: 0x10001DD3C, symSize: 0x3C }
  - { offset: 0x3019E, size: 0x8, addend: 0x0, symName: __ZNSt3__117__compressed_pairINS_12basic_stringIcNS_11char_traitsIcEENS_9allocatorIcEEE5__repES5_EC1B8ne180100INS_16__value_init_tagERKS5_EEOT_OT0_, symObjAddr: 0x16058, symBinAddr: 0x10001DD3C, symSize: 0x3C }
  - { offset: 0x30211, size: 0x8, addend: 0x0, symName: __ZNSt3__117__compressed_pairINS_12basic_stringIcNS_11char_traitsIcEENS_9allocatorIcEEE5__repES5_EC2B8ne180100INS_16__value_init_tagERKS5_EEOT_OT0_, symObjAddr: 0x160A8, symBinAddr: 0x10001DD78, symSize: 0x40 }
  - { offset: 0x30219, size: 0x8, addend: 0x0, symName: __ZNSt3__122__compressed_pair_elemINS_12basic_stringIcNS_11char_traitsIcEENS_9allocatorIcEEE5__repELi0ELb0EEC2B8ne180100ENS_16__value_init_tagE, symObjAddr: 0x160E8, symBinAddr: 0x10001DDB8, symSize: 0x34 }
  - { offset: 0x30284, size: 0x8, addend: 0x0, symName: __ZNSt3__122__compressed_pair_elemINS_12basic_stringIcNS_11char_traitsIcEENS_9allocatorIcEEE5__repELi0ELb0EEC2B8ne180100ENS_16__value_init_tagE, symObjAddr: 0x160E8, symBinAddr: 0x10001DDB8, symSize: 0x34 }
  - { offset: 0x302C7, size: 0x8, addend: 0x0, symName: __ZNSt3__112basic_stringIcNS_11char_traitsIcEENS_9allocatorIcEEEC2B8ne180100Ev, symObjAddr: 0x16134, symBinAddr: 0x10001DDEC, symSize: 0x1F8 }
  - { offset: 0x302CF, size: 0x8, addend: 0x0, symName: __ZNSt3__117__compressed_pairINS_12basic_stringIcNS_11char_traitsIcEENS_9allocatorIcEEE5__repES5_EC1B8ne180100INS_16__value_init_tagENS_18__default_init_tagEEEOT_OT0_, symObjAddr: 0x1632C, symBinAddr: 0x10001DFE4, symSize: 0x3C }
  - { offset: 0x302FD, size: 0x8, addend: 0x0, symName: __ZNSt3__117__compressed_pairINS_12basic_stringIcNS_11char_traitsIcEENS_9allocatorIcEEE5__repES5_EC1B8ne180100INS_16__value_init_tagENS_18__default_init_tagEEEOT_OT0_, symObjAddr: 0x1632C, symBinAddr: 0x10001DFE4, symSize: 0x3C }
  - { offset: 0x30305, size: 0x8, addend: 0x0, symName: __ZNSt3__117__compressed_pairINS_12basic_stringIcNS_11char_traitsIcEENS_9allocatorIcEEE5__repES5_EC2B8ne180100INS_16__value_init_tagENS_18__default_init_tagEEEOT_OT0_, symObjAddr: 0x16368, symBinAddr: 0x10001E020, symSize: 0x3C }
  - { offset: 0x30370, size: 0x8, addend: 0x0, symName: __ZNSt3__117__compressed_pairINS_12basic_stringIcNS_11char_traitsIcEENS_9allocatorIcEEE5__repES5_EC2B8ne180100INS_16__value_init_tagENS_18__default_init_tagEEEOT_OT0_, symObjAddr: 0x16368, symBinAddr: 0x10001E020, symSize: 0x3C }
  - { offset: 0x30378, size: 0x8, addend: 0x0, symName: __ZNKSt3__113basic_istreamIcNS_11char_traitsIcEEE6sentrycvbB8ne180100Ev, symObjAddr: 0x163A4, symBinAddr: 0x10001E05C, symSize: 0x88 }
  - { offset: 0x30419, size: 0x8, addend: 0x0, symName: __ZNKSt3__113basic_istreamIcNS_11char_traitsIcEEE6sentrycvbB8ne180100Ev, symObjAddr: 0x163A4, symBinAddr: 0x10001E05C, symSize: 0x88 }
  - { offset: 0x30421, size: 0x8, addend: 0x0, symName: __ZNSt3__112basic_stringIcNS_11char_traitsIcEENS_9allocatorIcEEE5clearB8ne180100Ev, symObjAddr: 0x1642C, symBinAddr: 0x10001E0E4, symSize: 0x320 }
  - { offset: 0x3044A, size: 0x8, addend: 0x0, symName: __ZNSt3__112basic_stringIcNS_11char_traitsIcEENS_9allocatorIcEEE5clearB8ne180100Ev, symObjAddr: 0x1642C, symBinAddr: 0x10001E0E4, symSize: 0x320 }
  - { offset: 0x30492, size: 0x8, addend: 0x0, symName: __ZNSt3__114numeric_limitsIlE3maxB8ne180100Ev, symObjAddr: 0x1686C, symBinAddr: 0x10001E404, symSize: 0x14 }
  - { offset: 0x304AD, size: 0x8, addend: 0x0, symName: __ZNSt3__115basic_streambufIcNS_11char_traitsIcEEE5sgetcB8ne180100Ev, symObjAddr: 0x168D0, symBinAddr: 0x10001E418, symSize: 0x1E4 }
  - { offset: 0x304DE, size: 0x8, addend: 0x0, symName: __ZNSt3__111char_traitsIcE12to_char_typeB8ne180100Ei, symObjAddr: 0x16ADC, symBinAddr: 0x10001E5FC, symSize: 0x18 }
  - { offset: 0x304E6, size: 0x8, addend: 0x0, symName: __ZNKSt3__15ctypeIcE2isB8ne180100Ejc, symObjAddr: 0x16AF4, symBinAddr: 0x10001E614, symSize: 0x120 }
  - { offset: 0x30517, size: 0x8, addend: 0x0, symName: __ZNKSt3__15ctypeIcE2isB8ne180100Ejc, symObjAddr: 0x16AF4, symBinAddr: 0x10001E614, symSize: 0x120 }
  - { offset: 0x3051F, size: 0x8, addend: 0x0, symName: __ZNSt3__115basic_streambufIcNS_11char_traitsIcEEE6sbumpcB8ne180100Ev, symObjAddr: 0x16C14, symBinAddr: 0x10001E734, symSize: 0x1EC }
  - { offset: 0x3056E, size: 0x8, addend: 0x0, symName: __ZNSt3__115basic_streambufIcNS_11char_traitsIcEEE6sbumpcB8ne180100Ev, symObjAddr: 0x16C14, symBinAddr: 0x10001E734, symSize: 0x1EC }
  - { offset: 0x3059F, size: 0x8, addend: 0x0, symName: __ZNSt3__18ios_base18__setstate_nothrowB8ne180100Ej, symObjAddr: 0x16EB8, symBinAddr: 0x10001E920, symSize: 0x178 }
  - { offset: 0x305A7, size: 0x8, addend: 0x0, symName: __ZNKSt3__19basic_iosIcNS_11char_traitsIcEEE10exceptionsB8ne180100Ev, symObjAddr: 0x17030, symBinAddr: 0x10001EA98, symSize: 0x24 }
  - { offset: 0x305E3, size: 0x8, addend: 0x0, symName: __ZNKSt3__19basic_iosIcNS_11char_traitsIcEEE10exceptionsB8ne180100Ev, symObjAddr: 0x17030, symBinAddr: 0x10001EA98, symSize: 0x24 }
  - { offset: 0x30614, size: 0x8, addend: 0x0, symName: __ZNSt3__111char_traitsIcE6assignB8ne180100ERcRKc, symObjAddr: 0x1720C, symBinAddr: 0x10001EABC, symSize: 0xF4 }
  - { offset: 0x30654, size: 0x8, addend: 0x0, symName: __ZNKSt3__112basic_stringIcNS_11char_traitsIcEENS_9allocatorIcEEE17__annotate_shrinkB8ne180100Em, symObjAddr: 0x17544, symBinAddr: 0x10001EBB0, symSize: 0x14 }
  - { offset: 0x30699, size: 0x8, addend: 0x0, symName: __ZNSt3__123__libcpp_numeric_limitsIlLb1EE3maxB8ne180100Ev, symObjAddr: 0x17740, symBinAddr: 0x10001EBC4, symSize: 0x8 }
  - { offset: 0x306B5, size: 0x8, addend: 0x0, symName: __ZNSt3__111char_traitsIcE11to_int_typeB8ne180100Ec, symObjAddr: 0x177AC, symBinAddr: 0x10001EBCC, symSize: 0x14 }
  - { offset: 0x306BD, size: 0x8, addend: 0x0, symName: __Z7isasciii, symObjAddr: 0x177C0, symBinAddr: 0x10001EBE0, symSize: 0x24 }
  - { offset: 0x306E5, size: 0x8, addend: 0x0, symName: __Z7isasciii, symObjAddr: 0x177C0, symBinAddr: 0x10001EBE0, symSize: 0x24 }
  - { offset: 0x306ED, size: 0x8, addend: 0x0, symName: __ZNKSt3__18ios_base10exceptionsB8ne180100Ev, symObjAddr: 0x177E4, symBinAddr: 0x10001EC04, symSize: 0x8C }
  - { offset: 0x3071F, size: 0x8, addend: 0x0, symName: __ZNKSt3__18ios_base10exceptionsB8ne180100Ev, symObjAddr: 0x177E4, symBinAddr: 0x10001EC04, symSize: 0x8C }
  - { offset: 0x30752, size: 0x8, addend: 0x0, symName: __ZNKSt3__19basic_iosIcNS_11char_traitsIcEEE4failB8ne180100Ev, symObjAddr: 0x1790C, symBinAddr: 0x10001EC90, symSize: 0x28 }
  - { offset: 0x3075A, size: 0x8, addend: 0x0, symName: __ZNKSt3__18ios_base4failB8ne180100Ev, symObjAddr: 0x17934, symBinAddr: 0x10001ECB8, symSize: 0x9C }
  - { offset: 0x30783, size: 0x8, addend: 0x0, symName: __ZNKSt3__18ios_base4failB8ne180100Ev, symObjAddr: 0x17934, symBinAddr: 0x10001ECB8, symSize: 0x9C }
  - { offset: 0x307B6, size: 0x8, addend: 0x0, symName: __ZNSt3__16vectorIiNS_9allocatorIiEEE9__end_capB8ne180100Ev, symObjAddr: 0x17B08, symBinAddr: 0x10001ED54, symSize: 0x28 }
  - { offset: 0x307BE, size: 0x8, addend: 0x0, symName: __ZNSt3__16vectorIiNS_9allocatorIiEEE22__construct_one_at_endB8ne180100IJiEEEvDpOT_, symObjAddr: 0x17B30, symBinAddr: 0x10001ED7C, symSize: 0x3CC }
  - { offset: 0x307F0, size: 0x8, addend: 0x0, symName: __ZNSt3__16vectorIiNS_9allocatorIiEEE22__construct_one_at_endB8ne180100IJiEEEvDpOT_, symObjAddr: 0x17B30, symBinAddr: 0x10001ED7C, symSize: 0x3CC }
  - { offset: 0x307F8, size: 0x8, addend: 0x0, symName: __ZNSt3__16vectorIiNS_9allocatorIiEEE21__push_back_slow_pathIiEEPiOT_, symObjAddr: 0x17EFC, symBinAddr: 0x10001F148, symSize: 0x468 }
  - { offset: 0x3085C, size: 0x8, addend: 0x0, symName: __ZNSt3__16vectorIiNS_9allocatorIiEEE21__push_back_slow_pathIiEEPiOT_, symObjAddr: 0x17EFC, symBinAddr: 0x10001F148, symSize: 0x468 }
  - { offset: 0x30864, size: 0x8, addend: 0x0, symName: __ZNSt3__117__compressed_pairIPiNS_9allocatorIiEEE5firstB8ne180100Ev, symObjAddr: 0x18364, symBinAddr: 0x10001F5B0, symSize: 0x24 }
  - { offset: 0x308DC, size: 0x8, addend: 0x0, symName: __ZNSt3__117__compressed_pairIPiNS_9allocatorIiEEE5firstB8ne180100Ev, symObjAddr: 0x18364, symBinAddr: 0x10001F5B0, symSize: 0x24 }
  - { offset: 0x308E4, size: 0x8, addend: 0x0, symName: __ZNSt3__122__compressed_pair_elemIPiLi0ELb0EE5__getB8ne180100Ev, symObjAddr: 0x18388, symBinAddr: 0x10001F5D4, symSize: 0x14 }
  - { offset: 0x3090D, size: 0x8, addend: 0x0, symName: __ZNSt3__122__compressed_pair_elemIPiLi0ELb0EE5__getB8ne180100Ev, symObjAddr: 0x18388, symBinAddr: 0x10001F5D4, symSize: 0x14 }
  - { offset: 0x30915, size: 0x8, addend: 0x0, symName: __ZNSt3__16vectorIiNS_9allocatorIiEEE21_ConstructTransactionC1B8ne180100ERS3_m, symObjAddr: 0x1839C, symBinAddr: 0x10001F5E8, symSize: 0x3C }
  - { offset: 0x3096C, size: 0x8, addend: 0x0, symName: __ZNSt3__16vectorIiNS_9allocatorIiEEE21_ConstructTransactionC1B8ne180100ERS3_m, symObjAddr: 0x1839C, symBinAddr: 0x10001F5E8, symSize: 0x3C }
  - { offset: 0x30974, size: 0x8, addend: 0x0, symName: __ZNSt3__116allocator_traitsINS_9allocatorIiEEE9constructB8ne180100IiJiEvEEvRS2_PT_DpOT0_, symObjAddr: 0x183D8, symBinAddr: 0x10001F624, symSize: 0x34 }
  - { offset: 0x309C7, size: 0x8, addend: 0x0, symName: __ZNSt3__116allocator_traitsINS_9allocatorIiEEE9constructB8ne180100IiJiEvEEvRS2_PT_DpOT0_, symObjAddr: 0x183D8, symBinAddr: 0x10001F624, symSize: 0x34 }
  - { offset: 0x309CF, size: 0x8, addend: 0x0, symName: __ZNSt3__16vectorIiNS_9allocatorIiEEE21_ConstructTransactionD1B8ne180100Ev, symObjAddr: 0x1840C, symBinAddr: 0x10001F658, symSize: 0x2C }
  - { offset: 0x30A39, size: 0x8, addend: 0x0, symName: __ZNSt3__16vectorIiNS_9allocatorIiEEE21_ConstructTransactionD1B8ne180100Ev, symObjAddr: 0x1840C, symBinAddr: 0x10001F658, symSize: 0x2C }
  - { offset: 0x30A41, size: 0x8, addend: 0x0, symName: __ZNSt3__16vectorIiNS_9allocatorIiEEE21_ConstructTransactionC2B8ne180100ERS3_m, symObjAddr: 0x18438, symBinAddr: 0x10001F684, symSize: 0x1D0 }
  - { offset: 0x30A6E, size: 0x8, addend: 0x0, symName: __ZNSt3__16vectorIiNS_9allocatorIiEEE21_ConstructTransactionC2B8ne180100ERS3_m, symObjAddr: 0x18438, symBinAddr: 0x10001F684, symSize: 0x1D0 }
  - { offset: 0x30A76, size: 0x8, addend: 0x0, symName: __ZNKSt3__16vectorIiNS_9allocatorIiEEE19__annotate_increaseB8ne180100Em, symObjAddr: 0x18608, symBinAddr: 0x10001F854, symSize: 0xAC }
  - { offset: 0x30AC9, size: 0x8, addend: 0x0, symName: __ZNKSt3__16vectorIiNS_9allocatorIiEEE19__annotate_increaseB8ne180100Em, symObjAddr: 0x18608, symBinAddr: 0x10001F854, symSize: 0xAC }
  - { offset: 0x30AD1, size: 0x8, addend: 0x0, symName: __ZNSt3__19allocatorIiE9constructB8ne180100IiJiEEEvPT_DpOT0_, symObjAddr: 0x186B4, symBinAddr: 0x10001F900, symSize: 0x104 }
  - { offset: 0x30B0D, size: 0x8, addend: 0x0, symName: __ZNSt3__19allocatorIiE9constructB8ne180100IiJiEEEvPT_DpOT0_, symObjAddr: 0x186B4, symBinAddr: 0x10001F900, symSize: 0x104 }
  - { offset: 0x30B15, size: 0x8, addend: 0x0, symName: __ZNSt3__16vectorIiNS_9allocatorIiEEE21_ConstructTransactionD2B8ne180100Ev, symObjAddr: 0x187B8, symBinAddr: 0x10001FA04, symSize: 0x278 }
  - { offset: 0x30B7E, size: 0x8, addend: 0x0, symName: __ZNSt3__16vectorIiNS_9allocatorIiEEE21_ConstructTransactionD2B8ne180100Ev, symObjAddr: 0x187B8, symBinAddr: 0x10001FA04, symSize: 0x278 }
  - { offset: 0x30B86, size: 0x8, addend: 0x0, symName: __ZNKSt3__16vectorIiNS_9allocatorIiEEE17__annotate_shrinkB8ne180100Em, symObjAddr: 0x18A30, symBinAddr: 0x10001FC7C, symSize: 0x9C }
  - { offset: 0x30BB3, size: 0x8, addend: 0x0, symName: __ZNKSt3__16vectorIiNS_9allocatorIiEEE17__annotate_shrinkB8ne180100Em, symObjAddr: 0x18A30, symBinAddr: 0x10001FC7C, symSize: 0x9C }
  - { offset: 0x30BBB, size: 0x8, addend: 0x0, symName: __ZNKSt3__16vectorIiNS_9allocatorIiEEE11__recommendB8ne180100Em, symObjAddr: 0x18ACC, symBinAddr: 0x10001FD18, symSize: 0x374 }
  - { offset: 0x30BF7, size: 0x8, addend: 0x0, symName: __ZNKSt3__16vectorIiNS_9allocatorIiEEE11__recommendB8ne180100Em, symObjAddr: 0x18ACC, symBinAddr: 0x10001FD18, symSize: 0x374 }
  - { offset: 0x30BFF, size: 0x8, addend: 0x0, symName: __ZNSt3__114__split_bufferIiRNS_9allocatorIiEEEC1EmmS3_, symObjAddr: 0x18E40, symBinAddr: 0x10002008C, symSize: 0x44 }
  - { offset: 0x30C6B, size: 0x8, addend: 0x0, symName: __ZNSt3__114__split_bufferIiRNS_9allocatorIiEEEC1EmmS3_, symObjAddr: 0x18E40, symBinAddr: 0x10002008C, symSize: 0x44 }
  - { offset: 0x30C73, size: 0x8, addend: 0x0, symName: __ZNSt3__16vectorIiNS_9allocatorIiEEE26__swap_out_circular_bufferERNS_14__split_bufferIiRS2_EE, symObjAddr: 0x18E84, symBinAddr: 0x1000200D0, symSize: 0x564 }
  - { offset: 0x30CD9, size: 0x8, addend: 0x0, symName: __ZNSt3__114__split_bufferIiRNS_9allocatorIiEEED1Ev, symObjAddr: 0x193E8, symBinAddr: 0x100020634, symSize: 0x2C }
  - { offset: 0x30CE1, size: 0x8, addend: 0x0, symName: __ZNKSt3__16vectorIiNS_9allocatorIiEEE8max_sizeEv, symObjAddr: 0x19414, symBinAddr: 0x100020660, symSize: 0x340 }
  - { offset: 0x30D10, size: 0x8, addend: 0x0, symName: __ZNKSt3__16vectorIiNS_9allocatorIiEEE8max_sizeEv, symObjAddr: 0x19414, symBinAddr: 0x100020660, symSize: 0x340 }
  - { offset: 0x30D18, size: 0x8, addend: 0x0, symName: __ZNKSt3__16vectorIiNS_9allocatorIiEEE20__throw_length_errorB8ne180100Ev, symObjAddr: 0x19754, symBinAddr: 0x1000209A0, symSize: 0x20 }
  - { offset: 0x30D44, size: 0x8, addend: 0x0, symName: __ZNKSt3__16vectorIiNS_9allocatorIiEEE20__throw_length_errorB8ne180100Ev, symObjAddr: 0x19754, symBinAddr: 0x1000209A0, symSize: 0x20 }
  - { offset: 0x30D4C, size: 0x8, addend: 0x0, symName: __ZNSt3__13maxB8ne180100ImEERKT_S3_S3_, symObjAddr: 0x19774, symBinAddr: 0x1000209C0, symSize: 0x2C }
  - { offset: 0x30D87, size: 0x8, addend: 0x0, symName: __ZNSt3__116allocator_traitsINS_9allocatorIiEEE8max_sizeB8ne180100IS2_vEEmRKS2_, symObjAddr: 0x197CC, symBinAddr: 0x100020A18, symSize: 0x24 }
  - { offset: 0x30D8F, size: 0x8, addend: 0x0, symName: __ZNKSt3__16vectorIiNS_9allocatorIiEEE7__allocB8ne180100Ev, symObjAddr: 0x197F0, symBinAddr: 0x100020A3C, symSize: 0x28 }
  - { offset: 0x30DC4, size: 0x8, addend: 0x0, symName: __ZNKSt3__16vectorIiNS_9allocatorIiEEE7__allocB8ne180100Ev, symObjAddr: 0x197F0, symBinAddr: 0x100020A3C, symSize: 0x28 }
  - { offset: 0x30DCC, size: 0x8, addend: 0x0, symName: __ZNSt3__13minB8ne180100ImNS_6__lessIvvEEEERKT_S5_S5_T0_, symObjAddr: 0x19818, symBinAddr: 0x100020A64, symSize: 0x1E0 }
  - { offset: 0x30E07, size: 0x8, addend: 0x0, symName: __ZNKSt3__16__lessIvvEclB8ne180100ImmEEbRKT_RKT0_, symObjAddr: 0x199F8, symBinAddr: 0x100020C44, symSize: 0xBC }
  - { offset: 0x30E0F, size: 0x8, addend: 0x0, symName: __ZNKSt3__19allocatorIiE8max_sizeB8ne180100Ev, symObjAddr: 0x19AB4, symBinAddr: 0x100020D00, symSize: 0x14 }
  - { offset: 0x30E76, size: 0x8, addend: 0x0, symName: __ZNKSt3__19allocatorIiE8max_sizeB8ne180100Ev, symObjAddr: 0x19AB4, symBinAddr: 0x100020D00, symSize: 0x14 }
  - { offset: 0x30E7E, size: 0x8, addend: 0x0, symName: __ZNKSt3__117__compressed_pairIPiNS_9allocatorIiEEE6secondB8ne180100Ev, symObjAddr: 0x19AC8, symBinAddr: 0x100020D14, symSize: 0x24 }
  - { offset: 0x30EA8, size: 0x8, addend: 0x0, symName: __ZNKSt3__117__compressed_pairIPiNS_9allocatorIiEEE6secondB8ne180100Ev, symObjAddr: 0x19AC8, symBinAddr: 0x100020D14, symSize: 0x24 }
  - { offset: 0x30EB0, size: 0x8, addend: 0x0, symName: __ZNKSt3__122__compressed_pair_elemINS_9allocatorIiEELi1ELb1EE5__getB8ne180100Ev, symObjAddr: 0x19AEC, symBinAddr: 0x100020D38, symSize: 0x14 }
  - { offset: 0x30ED9, size: 0x8, addend: 0x0, symName: __ZNKSt3__122__compressed_pair_elemINS_9allocatorIiEELi1ELb1EE5__getB8ne180100Ev, symObjAddr: 0x19AEC, symBinAddr: 0x100020D38, symSize: 0x14 }
  - { offset: 0x30F0C, size: 0x8, addend: 0x0, symName: __ZNSt3__114__split_bufferIiRNS_9allocatorIiEEEC2EmmS3_, symObjAddr: 0x19E00, symBinAddr: 0x100020F2C, symSize: 0x510 }
  - { offset: 0x30F14, size: 0x8, addend: 0x0, symName: __ZNSt3__117__compressed_pairIPiRNS_9allocatorIiEEEC1B8ne180100IDnS4_EEOT_OT0_, symObjAddr: 0x1A310, symBinAddr: 0x10002143C, symSize: 0x3C }
  - { offset: 0x30FA6, size: 0x8, addend: 0x0, symName: __ZNSt3__117__compressed_pairIPiRNS_9allocatorIiEEEC1B8ne180100IDnS4_EEOT_OT0_, symObjAddr: 0x1A310, symBinAddr: 0x10002143C, symSize: 0x3C }
  - { offset: 0x30FAE, size: 0x8, addend: 0x0, symName: __ZNSt3__119__allocate_at_leastB8ne180100INS_9allocatorIiEEEENS_19__allocation_resultINS_16allocator_traitsIT_E7pointerEEERS5_m, symObjAddr: 0x1A34C, symBinAddr: 0x100021478, symSize: 0x284 }
  - { offset: 0x31019, size: 0x8, addend: 0x0, symName: __ZNSt3__114__split_bufferIiRNS_9allocatorIiEEE7__allocB8ne180100Ev, symObjAddr: 0x1A5D0, symBinAddr: 0x1000216FC, symSize: 0x28 }
  - { offset: 0x31021, size: 0x8, addend: 0x0, symName: __ZNSt3__114__split_bufferIiRNS_9allocatorIiEEE9__end_capB8ne180100Ev, symObjAddr: 0x1A5F8, symBinAddr: 0x100021724, symSize: 0x28 }
  - { offset: 0x3104A, size: 0x8, addend: 0x0, symName: __ZNSt3__114__split_bufferIiRNS_9allocatorIiEEE9__end_capB8ne180100Ev, symObjAddr: 0x1A5F8, symBinAddr: 0x100021724, symSize: 0x28 }
  - { offset: 0x31052, size: 0x8, addend: 0x0, symName: __ZNSt3__117__compressed_pairIPiRNS_9allocatorIiEEEC2B8ne180100IDnS4_EEOT_OT0_, symObjAddr: 0x1A620, symBinAddr: 0x10002174C, symSize: 0x48 }
  - { offset: 0x3107B, size: 0x8, addend: 0x0, symName: __ZNSt3__117__compressed_pairIPiRNS_9allocatorIiEEEC2B8ne180100IDnS4_EEOT_OT0_, symObjAddr: 0x1A620, symBinAddr: 0x10002174C, symSize: 0x48 }
  - { offset: 0x31083, size: 0x8, addend: 0x0, symName: __ZNSt3__122__compressed_pair_elemIRNS_9allocatorIiEELi1ELb0EEC2B8ne180100IS3_vEEOT_, symObjAddr: 0x1A668, symBinAddr: 0x100021794, symSize: 0x70 }
  - { offset: 0x310EE, size: 0x8, addend: 0x0, symName: __ZNSt3__122__compressed_pair_elemIRNS_9allocatorIiEELi1ELb0EEC2B8ne180100IS3_vEEOT_, symObjAddr: 0x1A668, symBinAddr: 0x100021794, symSize: 0x70 }
  - { offset: 0x310F6, size: 0x8, addend: 0x0, symName: __ZNSt3__19allocatorIiE8allocateB8ne180100Em, symObjAddr: 0x1A6D8, symBinAddr: 0x100021804, symSize: 0x88 }
  - { offset: 0x31143, size: 0x8, addend: 0x0, symName: __ZNSt3__19allocatorIiE8allocateB8ne180100Em, symObjAddr: 0x1A6D8, symBinAddr: 0x100021804, symSize: 0x88 }
  - { offset: 0x31186, size: 0x8, addend: 0x0, symName: __ZNSt3__117__compressed_pairIPiRNS_9allocatorIiEEE6secondB8ne180100Ev, symObjAddr: 0x1A7E4, symBinAddr: 0x10002188C, symSize: 0x28 }
  - { offset: 0x3118E, size: 0x8, addend: 0x0, symName: __ZNSt3__122__compressed_pair_elemIRNS_9allocatorIiEELi1ELb0EE5__getB8ne180100Ev, symObjAddr: 0x1A80C, symBinAddr: 0x1000218B4, symSize: 0x60 }
  - { offset: 0x311B7, size: 0x8, addend: 0x0, symName: __ZNSt3__122__compressed_pair_elemIRNS_9allocatorIiEELi1ELb0EE5__getB8ne180100Ev, symObjAddr: 0x1A80C, symBinAddr: 0x1000218B4, symSize: 0x60 }
  - { offset: 0x311BF, size: 0x8, addend: 0x0, symName: __ZNSt3__117__compressed_pairIPiRNS_9allocatorIiEEE5firstB8ne180100Ev, symObjAddr: 0x1A86C, symBinAddr: 0x100021914, symSize: 0x24 }
  - { offset: 0x311E8, size: 0x8, addend: 0x0, symName: __ZNSt3__117__compressed_pairIPiRNS_9allocatorIiEEE5firstB8ne180100Ev, symObjAddr: 0x1A86C, symBinAddr: 0x100021914, symSize: 0x24 }
  - { offset: 0x311F0, size: 0x8, addend: 0x0, symName: __ZNSt3__142__uninitialized_allocator_move_if_noexceptB8ne180100INS_9allocatorIiEENS_16reverse_iteratorIPiEES5_ivEET1_RT_T0_S9_S6_, symObjAddr: 0x1A890, symBinAddr: 0x100021938, symSize: 0x548 }
  - { offset: 0x31219, size: 0x8, addend: 0x0, symName: __ZNSt3__116reverse_iteratorIPiEC1B8ne180100ES1_, symObjAddr: 0x1ADD8, symBinAddr: 0x100021E80, symSize: 0x34 }
  - { offset: 0x31221, size: 0x8, addend: 0x0, symName: __ZNKSt3__116reverse_iteratorIPiE4baseB8ne180100Ev, symObjAddr: 0x1AE0C, symBinAddr: 0x100021EB4, symSize: 0x64 }
  - { offset: 0x31260, size: 0x8, addend: 0x0, symName: __ZNKSt3__116reverse_iteratorIPiE4baseB8ne180100Ev, symObjAddr: 0x1AE0C, symBinAddr: 0x100021EB4, symSize: 0x64 }
  - { offset: 0x31268, size: 0x8, addend: 0x0, symName: __ZNSt3__14swapB8ne180100IPiEEvRT_S3_, symObjAddr: 0x1AE70, symBinAddr: 0x100021F18, symSize: 0x134 }
  - { offset: 0x31291, size: 0x8, addend: 0x0, symName: __ZNKSt3__16vectorIiNS_9allocatorIiEEE14__annotate_newB8ne180100Em, symObjAddr: 0x1AFA4, symBinAddr: 0x10002204C, symSize: 0x94 }
  - { offset: 0x31299, size: 0x8, addend: 0x0, symName: __ZNSt3__1neB8ne180100IPiS1_EEbRKNS_16reverse_iteratorIT_EERKNS2_IT0_EE, symObjAddr: 0x1B038, symBinAddr: 0x1000220E0, symSize: 0x48 }
  - { offset: 0x312D5, size: 0x8, addend: 0x0, symName: __ZNKSt3__116reverse_iteratorIPiEdeB8ne180100Ev, symObjAddr: 0x1B1A4, symBinAddr: 0x10002224C, symSize: 0x74 }
  - { offset: 0x312DD, size: 0x8, addend: 0x0, symName: __ZNSt3__116reverse_iteratorIPiEppB8ne180100Ev, symObjAddr: 0x1B218, symBinAddr: 0x1000222C0, symSize: 0x6C }
  - { offset: 0x31318, size: 0x8, addend: 0x0, symName: __ZNSt3__116reverse_iteratorIPiEppB8ne180100Ev, symObjAddr: 0x1B218, symBinAddr: 0x1000222C0, symSize: 0x6C }
  - { offset: 0x31320, size: 0x8, addend: 0x0, symName: __ZNSt3__14moveB8ne180100INS_16reverse_iteratorIPiEES3_EET0_T_S5_S4_, symObjAddr: 0x1B284, symBinAddr: 0x10002232C, symSize: 0x4B0 }
  - { offset: 0x31352, size: 0x8, addend: 0x0, symName: __ZNSt3__119__to_address_helperINS_16reverse_iteratorIPiEEvE6__callB8ne180100ERKS3_, symObjAddr: 0x1B734, symBinAddr: 0x1000227DC, symSize: 0x58 }
  - { offset: 0x3135A, size: 0x8, addend: 0x0, symName: __ZNKSt3__116reverse_iteratorIPiEptB8ne180100Ev, symObjAddr: 0x1B78C, symBinAddr: 0x100022834, symSize: 0x24 }
  - { offset: 0x31380, size: 0x8, addend: 0x0, symName: __ZNKSt3__116reverse_iteratorIPiEptB8ne180100Ev, symObjAddr: 0x1B78C, symBinAddr: 0x100022834, symSize: 0x24 }
  - { offset: 0x31388, size: 0x8, addend: 0x0, symName: __ZNSt3__16__moveB8ne180100INS_17_ClassicAlgPolicyENS_16reverse_iteratorIPiEES4_S4_EENS_4pairIT0_T2_EES6_T1_S7_, symObjAddr: 0x1B7B0, symBinAddr: 0x100022858, symSize: 0x41C }
  - { offset: 0x313F0, size: 0x8, addend: 0x0, symName: __ZNKSt3__111__move_loopINS_17_ClassicAlgPolicyEEclB8ne180100INS_16reverse_iteratorIPiEES6_S6_EENS_4pairIT_T1_EES8_T0_S9_, symObjAddr: 0x1CCA8, symBinAddr: 0x100023D50, symSize: 0x3E8 }
  - { offset: 0x313F8, size: 0x8, addend: 0x0, symName: __ZNSt3__113__unwrap_iterB8ne180100INS_16reverse_iteratorIPiEENS_18__unwrap_iter_implIS3_Lb0EEELi0EEEDTclsrT0_8__unwrapclsr3stdE7declvalIT_EEEES7_, symObjAddr: 0x1D090, symBinAddr: 0x100024138, symSize: 0x2DC }
  - { offset: 0x31494, size: 0x8, addend: 0x0, symName: __ZNSt3__18_IterOpsINS_17_ClassicAlgPolicyEE11__iter_moveB8ne180100IRNS_16reverse_iteratorIPiEELi0EEEDTclsr3stdE4movedeclsr3stdE7declvalIRT_EEEEOS8_, symObjAddr: 0x1DBD0, symBinAddr: 0x100024C78, symSize: 0x28 }
  - { offset: 0x3149C, size: 0x8, addend: 0x0, symName: __ZNSt3__18_IterOpsINS_17_ClassicAlgPolicyEE25__validate_iter_referenceB8ne180100IRNS_16reverse_iteratorIPiEEEEvv, symObjAddr: 0x1DBF8, symBinAddr: 0x100024CA0, symSize: 0x4 }
  - { offset: 0x314D9, size: 0x8, addend: 0x0, symName: __ZNSt3__18_IterOpsINS_17_ClassicAlgPolicyEE25__validate_iter_referenceB8ne180100IRNS_16reverse_iteratorIPiEEEEvv, symObjAddr: 0x1DBF8, symBinAddr: 0x100024CA0, symSize: 0x4 }
  - { offset: 0x314E1, size: 0x8, addend: 0x0, symName: __ZNSt3__118__unwrap_iter_implINS_16reverse_iteratorIPiEELb0EE8__unwrapB8ne180100ES3_, symObjAddr: 0x1DBFC, symBinAddr: 0x100024CA4, symSize: 0x264 }
  - { offset: 0x31503, size: 0x8, addend: 0x0, symName: __ZNSt3__118__unwrap_iter_implINS_16reverse_iteratorIPiEELb0EE8__unwrapB8ne180100ES3_, symObjAddr: 0x1DBFC, symBinAddr: 0x100024CA4, symSize: 0x264 }
  - { offset: 0x3150B, size: 0x8, addend: 0x0, symName: __ZNSt3__14pairINS_16reverse_iteratorIPiEES3_EC1B8ne180100ERKS3_S6_, symObjAddr: 0x1DE60, symBinAddr: 0x100024F08, symSize: 0x3C }
  - { offset: 0x31535, size: 0x8, addend: 0x0, symName: __ZNSt3__14pairINS_16reverse_iteratorIPiEES3_EC1B8ne180100ERKS3_S6_, symObjAddr: 0x1DE60, symBinAddr: 0x100024F08, symSize: 0x3C }
  - { offset: 0x3153D, size: 0x8, addend: 0x0, symName: __ZNSt3__14pairINS_16reverse_iteratorIPiEES3_EC2B8ne180100ERKS3_S6_, symObjAddr: 0x1DE9C, symBinAddr: 0x100024F44, symSize: 0x54 }
  - { offset: 0x3158E, size: 0x8, addend: 0x0, symName: __ZNSt3__14pairINS_16reverse_iteratorIPiEES3_EC2B8ne180100ERKS3_S6_, symObjAddr: 0x1DE9C, symBinAddr: 0x100024F44, symSize: 0x54 }
  - { offset: 0x31596, size: 0x8, addend: 0x0, symName: __ZNSt3__118__unwrap_iter_implINS_16reverse_iteratorIPiEELb0EE8__rewrapB8ne180100ES3_S3_, symObjAddr: 0x1DEF0, symBinAddr: 0x100024F98, symSize: 0x2D0 }
  - { offset: 0x315E7, size: 0x8, addend: 0x0, symName: __ZNSt3__118__unwrap_iter_implINS_16reverse_iteratorIPiEELb0EE8__rewrapB8ne180100ES3_S3_, symObjAddr: 0x1DEF0, symBinAddr: 0x100024F98, symSize: 0x2D0 }
  - { offset: 0x315EF, size: 0x8, addend: 0x0, symName: __ZNSt3__116reverse_iteratorIPiEC2B8ne180100ES1_, symObjAddr: 0x1E1C0, symBinAddr: 0x100025268, symSize: 0xB8 }
  - { offset: 0x3162B, size: 0x8, addend: 0x0, symName: __ZNSt3__116reverse_iteratorIPiEC2B8ne180100ES1_, symObjAddr: 0x1E1C0, symBinAddr: 0x100025268, symSize: 0xB8 }
  - { offset: 0x31633, size: 0x8, addend: 0x0, symName: __ZNSt3__114__split_bufferIiRNS_9allocatorIiEEED2Ev, symObjAddr: 0x1E278, symBinAddr: 0x100025320, symSize: 0xEC }
  - { offset: 0x31673, size: 0x8, addend: 0x0, symName: __ZNSt3__114__split_bufferIiRNS_9allocatorIiEEED2Ev, symObjAddr: 0x1E278, symBinAddr: 0x100025320, symSize: 0xEC }
  - { offset: 0x3167B, size: 0x8, addend: 0x0, symName: __ZNSt3__114__split_bufferIiRNS_9allocatorIiEEE5clearB8ne180100Ev, symObjAddr: 0x1E364, symBinAddr: 0x10002540C, symSize: 0x68 }
  - { offset: 0x316AA, size: 0x8, addend: 0x0, symName: __ZNSt3__114__split_bufferIiRNS_9allocatorIiEEE5clearB8ne180100Ev, symObjAddr: 0x1E364, symBinAddr: 0x10002540C, symSize: 0x68 }
  - { offset: 0x316B2, size: 0x8, addend: 0x0, symName: __ZNKSt3__114__split_bufferIiRNS_9allocatorIiEEE8capacityB8ne180100Ev, symObjAddr: 0x1E3CC, symBinAddr: 0x100025474, symSize: 0xBC }
  - { offset: 0x316DB, size: 0x8, addend: 0x0, symName: __ZNKSt3__114__split_bufferIiRNS_9allocatorIiEEE8capacityB8ne180100Ev, symObjAddr: 0x1E3CC, symBinAddr: 0x100025474, symSize: 0xBC }
  - { offset: 0x316E3, size: 0x8, addend: 0x0, symName: __ZNSt3__114__split_bufferIiRNS_9allocatorIiEEE17__destruct_at_endB8ne180100EPi, symObjAddr: 0x1E488, symBinAddr: 0x100025530, symSize: 0x2C }
  - { offset: 0x3170C, size: 0x8, addend: 0x0, symName: __ZNSt3__114__split_bufferIiRNS_9allocatorIiEEE17__destruct_at_endB8ne180100EPi, symObjAddr: 0x1E488, symBinAddr: 0x100025530, symSize: 0x2C }
  - { offset: 0x31714, size: 0x8, addend: 0x0, symName: __ZNSt3__114__split_bufferIiRNS_9allocatorIiEEE17__destruct_at_endB8ne180100EPiNS_17integral_constantIbLb0EEE, symObjAddr: 0x1E4B4, symBinAddr: 0x10002555C, symSize: 0x120 }
  - { offset: 0x3174F, size: 0x8, addend: 0x0, symName: __ZNSt3__114__split_bufferIiRNS_9allocatorIiEEE17__destruct_at_endB8ne180100EPiNS_17integral_constantIbLb0EEE, symObjAddr: 0x1E4B4, symBinAddr: 0x10002555C, symSize: 0x120 }
  - { offset: 0x31757, size: 0x8, addend: 0x0, symName: __ZNKSt3__114__split_bufferIiRNS_9allocatorIiEEE9__end_capB8ne180100Ev, symObjAddr: 0x1E5D4, symBinAddr: 0x10002567C, symSize: 0x28 }
  - { offset: 0x317A2, size: 0x8, addend: 0x0, symName: __ZNKSt3__114__split_bufferIiRNS_9allocatorIiEEE9__end_capB8ne180100Ev, symObjAddr: 0x1E5D4, symBinAddr: 0x10002567C, symSize: 0x28 }
  - { offset: 0x317AA, size: 0x8, addend: 0x0, symName: __ZNKSt3__117__compressed_pairIPiRNS_9allocatorIiEEE5firstB8ne180100Ev, symObjAddr: 0x1E5FC, symBinAddr: 0x1000256A4, symSize: 0x24 }
  - { offset: 0x317D3, size: 0x8, addend: 0x0, symName: __ZNKSt3__117__compressed_pairIPiRNS_9allocatorIiEEE5firstB8ne180100Ev, symObjAddr: 0x1E5FC, symBinAddr: 0x1000256A4, symSize: 0x24 }
  - { offset: 0x3183A, size: 0x8, addend: 0x0, symName: __ZNKSt3__16vectorIiNS_9allocatorIiEEE11__make_iterB8ne180100EPKi, symObjAddr: 0x20188, symBinAddr: 0x1000256C8, symSize: 0x1F4 }
  - { offset: 0x31842, size: 0x8, addend: 0x0, symName: __ZNSt3__111__wrap_iterIPKiEC1B8ne180100ES2_, symObjAddr: 0x2037C, symBinAddr: 0x1000258BC, symSize: 0x34 }
  - { offset: 0x31880, size: 0x8, addend: 0x0, symName: __ZNSt3__111__wrap_iterIPKiEC1B8ne180100ES2_, symObjAddr: 0x2037C, symBinAddr: 0x1000258BC, symSize: 0x34 }
  - { offset: 0x31888, size: 0x8, addend: 0x0, symName: __ZNSt3__111__wrap_iterIPKiEC2B8ne180100ES2_, symObjAddr: 0x203B0, symBinAddr: 0x1000258F0, symSize: 0x70 }
  - { offset: 0x318C7, size: 0x8, addend: 0x0, symName: __ZNSt3__111__wrap_iterIPKiEC2B8ne180100ES2_, symObjAddr: 0x203B0, symBinAddr: 0x1000258F0, symSize: 0x70 }
  - { offset: 0x318CF, size: 0x8, addend: 0x0, symName: __ZNSt3__1eqB8ne180100IPKiEEbRKNS_11__wrap_iterIT_EES7_, symObjAddr: 0x20420, symBinAddr: 0x100025960, symSize: 0x48 }
  - { offset: 0x3190E, size: 0x8, addend: 0x0, symName: __ZNKSt3__111__wrap_iterIPKiE4baseB8ne180100Ev, symObjAddr: 0x20468, symBinAddr: 0x1000259A8, symSize: 0x60 }
  - { offset: 0x31916, size: 0x8, addend: 0x0, symName: __ZNSt3__111__wrap_iterIPKiEppB8ne180100Ev, symObjAddr: 0x204C8, symBinAddr: 0x100025A08, symSize: 0x68 }
  - { offset: 0x3193F, size: 0x8, addend: 0x0, symName: __ZNSt3__111__wrap_iterIPKiEppB8ne180100Ev, symObjAddr: 0x204C8, symBinAddr: 0x100025A08, symSize: 0x68 }
  - { offset: 0x31947, size: 0x8, addend: 0x0, symName: __ZNSt3__19is_sortedB8ne180100INS_11__wrap_iterIPKiEENS_6__lessIvvEEEEbT_S7_T0_, symObjAddr: 0x20530, symBinAddr: 0x100025A70, symSize: 0x3E4 }
  - { offset: 0x31970, size: 0x8, addend: 0x0, symName: __ZNKSt3__16__lessIvvEclB8ne180100IiiEEbRKT_RKT0_, symObjAddr: 0x20C7C, symBinAddr: 0x1000261BC, symSize: 0x10C }
  - { offset: 0x31978, size: 0x8, addend: 0x0, symName: __ZNSt3__16vectorIiNS_9allocatorIiEEEC2ERKS3_, symObjAddr: 0x20D88, symBinAddr: 0x1000262C8, symSize: 0x378 }
  - { offset: 0x319E0, size: 0x8, addend: 0x0, symName: __ZNSt3__16vectorIiNS_9allocatorIiEEEC2ERKS3_, symObjAddr: 0x20D88, symBinAddr: 0x1000262C8, symSize: 0x378 }
  - { offset: 0x319E8, size: 0x8, addend: 0x0, symName: __ZNSt3__116allocator_traitsINS_9allocatorIiEEE37select_on_container_copy_constructionB8ne180100IS2_vvEES2_RKS2_, symObjAddr: 0x21100, symBinAddr: 0x100026640, symSize: 0x10 }
  - { offset: 0x31A2C, size: 0x8, addend: 0x0, symName: __ZNSt3__116allocator_traitsINS_9allocatorIiEEE37select_on_container_copy_constructionB8ne180100IS2_vvEES2_RKS2_, symObjAddr: 0x21100, symBinAddr: 0x100026640, symSize: 0x10 }
  - { offset: 0x31A34, size: 0x8, addend: 0x0, symName: __ZNSt3__117__compressed_pairIPiNS_9allocatorIiEEEC1B8ne180100IDnS3_EEOT_OT0_, symObjAddr: 0x21110, symBinAddr: 0x100026650, symSize: 0x3C }
  - { offset: 0x31A74, size: 0x8, addend: 0x0, symName: __ZNSt3__117__compressed_pairIPiNS_9allocatorIiEEEC1B8ne180100IDnS3_EEOT_OT0_, symObjAddr: 0x21110, symBinAddr: 0x100026650, symSize: 0x3C }
  - { offset: 0x31A7C, size: 0x8, addend: 0x0, symName: __ZNSt3__16vectorIiNS_9allocatorIiEEE16__init_with_sizeB8ne180100IPiS5_EEvT_T0_m, symObjAddr: 0x2114C, symBinAddr: 0x10002668C, symSize: 0x3BC }
  - { offset: 0x31AE7, size: 0x8, addend: 0x0, symName: __ZNSt3__16vectorIiNS_9allocatorIiEEE16__init_with_sizeB8ne180100IPiS5_EEvT_T0_m, symObjAddr: 0x2114C, symBinAddr: 0x10002668C, symSize: 0x3BC }
  - { offset: 0x31AEF, size: 0x8, addend: 0x0, symName: __ZNSt3__117__compressed_pairIPiNS_9allocatorIiEEEC2B8ne180100IDnS3_EEOT_OT0_, symObjAddr: 0x21508, symBinAddr: 0x100026A48, symSize: 0x44 }
  - { offset: 0x31B86, size: 0x8, addend: 0x0, symName: __ZNSt3__117__compressed_pairIPiNS_9allocatorIiEEEC2B8ne180100IDnS3_EEOT_OT0_, symObjAddr: 0x21508, symBinAddr: 0x100026A48, symSize: 0x44 }
  - { offset: 0x31B8E, size: 0x8, addend: 0x0, symName: __ZNSt3__122__compressed_pair_elemINS_9allocatorIiEELi1ELb1EEC2B8ne180100IS2_vEEOT_, symObjAddr: 0x2154C, symBinAddr: 0x100026A8C, symSize: 0x18 }
  - { offset: 0x31BF9, size: 0x8, addend: 0x0, symName: __ZNSt3__122__compressed_pair_elemINS_9allocatorIiEELi1ELb1EEC2B8ne180100IS2_vEEOT_, symObjAddr: 0x2154C, symBinAddr: 0x100026A8C, symSize: 0x18 }
  - { offset: 0x31C01, size: 0x8, addend: 0x0, symName: __ZNSt3__122__make_exception_guardB8ne180100INS_6vectorIiNS_9allocatorIiEEE16__destroy_vectorEEENS_28__exception_guard_exceptionsIT_EES7_, symObjAddr: 0x21564, symBinAddr: 0x100026AA4, symSize: 0x268 }
  - { offset: 0x31C4F, size: 0x8, addend: 0x0, symName: __ZNSt3__16vectorIiNS_9allocatorIiEEE11__vallocateB8ne180100Em, symObjAddr: 0x217CC, symBinAddr: 0x100026D0C, symSize: 0x418 }
  - { offset: 0x31C57, size: 0x8, addend: 0x0, symName: __ZNSt3__16vectorIiNS_9allocatorIiEEE18__construct_at_endIPiS5_EEvT_T0_m, symObjAddr: 0x21BE4, symBinAddr: 0x100027124, symSize: 0x3E0 }
  - { offset: 0x31CAC, size: 0x8, addend: 0x0, symName: __ZNSt3__16vectorIiNS_9allocatorIiEEE18__construct_at_endIPiS5_EEvT_T0_m, symObjAddr: 0x21BE4, symBinAddr: 0x100027124, symSize: 0x3E0 }
  - { offset: 0x31CB4, size: 0x8, addend: 0x0, symName: __ZNSt3__128__exception_guard_exceptionsINS_6vectorIiNS_9allocatorIiEEE16__destroy_vectorEE10__completeB8ne180100Ev, symObjAddr: 0x21FC4, symBinAddr: 0x100027504, symSize: 0x8C }
  - { offset: 0x31D4D, size: 0x8, addend: 0x0, symName: __ZNSt3__128__exception_guard_exceptionsINS_6vectorIiNS_9allocatorIiEEE16__destroy_vectorEE10__completeB8ne180100Ev, symObjAddr: 0x21FC4, symBinAddr: 0x100027504, symSize: 0x8C }
  - { offset: 0x31D55, size: 0x8, addend: 0x0, symName: __ZNSt3__128__exception_guard_exceptionsINS_6vectorIiNS_9allocatorIiEEE16__destroy_vectorEED1B8ne180100Ev, symObjAddr: 0x22050, symBinAddr: 0x100027590, symSize: 0x2C }
  - { offset: 0x31D7E, size: 0x8, addend: 0x0, symName: __ZNSt3__128__exception_guard_exceptionsINS_6vectorIiNS_9allocatorIiEEE16__destroy_vectorEED1B8ne180100Ev, symObjAddr: 0x22050, symBinAddr: 0x100027590, symSize: 0x2C }
  - { offset: 0x31D86, size: 0x8, addend: 0x0, symName: __ZNSt3__128__exception_guard_exceptionsINS_6vectorIiNS_9allocatorIiEEE16__destroy_vectorEEC1B8ne180100ES5_, symObjAddr: 0x2207C, symBinAddr: 0x1000275BC, symSize: 0x230 }
  - { offset: 0x31DB3, size: 0x8, addend: 0x0, symName: __ZNSt3__128__exception_guard_exceptionsINS_6vectorIiNS_9allocatorIiEEE16__destroy_vectorEEC1B8ne180100ES5_, symObjAddr: 0x2207C, symBinAddr: 0x1000275BC, symSize: 0x230 }
  - { offset: 0x31DBB, size: 0x8, addend: 0x0, symName: __ZNSt3__128__exception_guard_exceptionsINS_6vectorIiNS_9allocatorIiEEE16__destroy_vectorEEC2B8ne180100ES5_, symObjAddr: 0x222AC, symBinAddr: 0x1000277EC, symSize: 0x25C }
  - { offset: 0x31DFF, size: 0x8, addend: 0x0, symName: __ZNSt3__128__exception_guard_exceptionsINS_6vectorIiNS_9allocatorIiEEE16__destroy_vectorEEC2B8ne180100ES5_, symObjAddr: 0x222AC, symBinAddr: 0x1000277EC, symSize: 0x25C }
  - { offset: 0x31E07, size: 0x8, addend: 0x0, symName: __ZNSt3__130__uninitialized_allocator_copyB8ne180100INS_9allocatorIiEEPiS3_S3_EET2_RT_T0_T1_S4_, symObjAddr: 0x22508, symBinAddr: 0x100027A48, symSize: 0x2D4 }
  - { offset: 0x31E78, size: 0x8, addend: 0x0, symName: __ZNSt3__14pairIPiS1_EC1B8ne180100ERKS1_S4_, symObjAddr: 0x23334, symBinAddr: 0x100028874, symSize: 0x3C }
  - { offset: 0x31E80, size: 0x8, addend: 0x0, symName: __ZNSt3__14pairIPiS1_EC2B8ne180100ERKS1_S4_, symObjAddr: 0x23370, symBinAddr: 0x1000288B0, symSize: 0x138 }
  - { offset: 0x31ED1, size: 0x8, addend: 0x0, symName: __ZNSt3__14pairIPiS1_EC2B8ne180100ERKS1_S4_, symObjAddr: 0x23370, symBinAddr: 0x1000288B0, symSize: 0x138 }
  - { offset: 0x31ED9, size: 0x8, addend: 0x0, symName: __ZNSt3__122__make_exception_guardB8ne180100INS_29_AllocatorDestroyRangeReverseINS_9allocatorIiEEPiEEEENS_28__exception_guard_exceptionsIT_EES7_, symObjAddr: 0x234A8, symBinAddr: 0x1000289E8, symSize: 0x1E8 }
  - { offset: 0x31F2A, size: 0x8, addend: 0x0, symName: __ZNSt3__129_AllocatorDestroyRangeReverseINS_9allocatorIiEEPiEC1B8ne180100ERS2_RS3_S6_, symObjAddr: 0x23690, symBinAddr: 0x100028BD0, symSize: 0x44 }
  - { offset: 0x31F32, size: 0x8, addend: 0x0, symName: __ZNSt3__116allocator_traitsINS_9allocatorIiEEE9constructB8ne180100IiJRiEvEEvRS2_PT_DpOT0_, symObjAddr: 0x236D4, symBinAddr: 0x100028C14, symSize: 0x34 }
  - { offset: 0x31F98, size: 0x8, addend: 0x0, symName: __ZNSt3__116allocator_traitsINS_9allocatorIiEEE9constructB8ne180100IiJRiEvEEvRS2_PT_DpOT0_, symObjAddr: 0x236D4, symBinAddr: 0x100028C14, symSize: 0x34 }
  - { offset: 0x31FA0, size: 0x8, addend: 0x0, symName: __ZNSt3__128__exception_guard_exceptionsINS_29_AllocatorDestroyRangeReverseINS_9allocatorIiEEPiEEE10__completeB8ne180100Ev, symObjAddr: 0x23708, symBinAddr: 0x100028C48, symSize: 0x8C }
  - { offset: 0x3200A, size: 0x8, addend: 0x0, symName: __ZNSt3__128__exception_guard_exceptionsINS_29_AllocatorDestroyRangeReverseINS_9allocatorIiEEPiEEE10__completeB8ne180100Ev, symObjAddr: 0x23708, symBinAddr: 0x100028C48, symSize: 0x8C }
  - { offset: 0x32012, size: 0x8, addend: 0x0, symName: __ZNSt3__128__exception_guard_exceptionsINS_29_AllocatorDestroyRangeReverseINS_9allocatorIiEEPiEEED1B8ne180100Ev, symObjAddr: 0x23794, symBinAddr: 0x100028CD4, symSize: 0x2C }
  - { offset: 0x3203B, size: 0x8, addend: 0x0, symName: __ZNSt3__128__exception_guard_exceptionsINS_29_AllocatorDestroyRangeReverseINS_9allocatorIiEEPiEEED1B8ne180100Ev, symObjAddr: 0x23794, symBinAddr: 0x100028CD4, symSize: 0x2C }
  - { offset: 0x32043, size: 0x8, addend: 0x0, symName: __ZNSt3__128__exception_guard_exceptionsINS_29_AllocatorDestroyRangeReverseINS_9allocatorIiEEPiEEEC1B8ne180100ES5_, symObjAddr: 0x237C0, symBinAddr: 0x100028D00, symSize: 0x34 }
  - { offset: 0x32070, size: 0x8, addend: 0x0, symName: __ZNSt3__128__exception_guard_exceptionsINS_29_AllocatorDestroyRangeReverseINS_9allocatorIiEEPiEEEC1B8ne180100ES5_, symObjAddr: 0x237C0, symBinAddr: 0x100028D00, symSize: 0x34 }
  - { offset: 0x32078, size: 0x8, addend: 0x0, symName: __ZNSt3__128__exception_guard_exceptionsINS_29_AllocatorDestroyRangeReverseINS_9allocatorIiEEPiEEEC2B8ne180100ES5_, symObjAddr: 0x237F4, symBinAddr: 0x100028D34, symSize: 0xA4 }
  - { offset: 0x320B8, size: 0x8, addend: 0x0, symName: __ZNSt3__128__exception_guard_exceptionsINS_29_AllocatorDestroyRangeReverseINS_9allocatorIiEEPiEEEC2B8ne180100ES5_, symObjAddr: 0x237F4, symBinAddr: 0x100028D34, symSize: 0xA4 }
  - { offset: 0x320C0, size: 0x8, addend: 0x0, symName: __ZNSt3__129_AllocatorDestroyRangeReverseINS_9allocatorIiEEPiEC2B8ne180100ERS2_RS3_S6_, symObjAddr: 0x23898, symBinAddr: 0x100028DD8, symSize: 0x104 }
  - { offset: 0x32100, size: 0x8, addend: 0x0, symName: __ZNSt3__129_AllocatorDestroyRangeReverseINS_9allocatorIiEEPiEC2B8ne180100ERS2_RS3_S6_, symObjAddr: 0x23898, symBinAddr: 0x100028DD8, symSize: 0x104 }
  - { offset: 0x32108, size: 0x8, addend: 0x0, symName: __ZNSt3__19allocatorIiE9constructB8ne180100IiJRiEEEvPT_DpOT0_, symObjAddr: 0x2399C, symBinAddr: 0x100028EDC, symSize: 0x104 }
  - { offset: 0x3216E, size: 0x8, addend: 0x0, symName: __ZNSt3__19allocatorIiE9constructB8ne180100IiJRiEEEvPT_DpOT0_, symObjAddr: 0x2399C, symBinAddr: 0x100028EDC, symSize: 0x104 }
  - { offset: 0x32176, size: 0x8, addend: 0x0, symName: __ZNSt3__128__exception_guard_exceptionsINS_29_AllocatorDestroyRangeReverseINS_9allocatorIiEEPiEEED2B8ne180100Ev, symObjAddr: 0x23AA0, symBinAddr: 0x100028FE0, symSize: 0xA8 }
  - { offset: 0x321DF, size: 0x8, addend: 0x0, symName: __ZNSt3__128__exception_guard_exceptionsINS_29_AllocatorDestroyRangeReverseINS_9allocatorIiEEPiEEED2B8ne180100Ev, symObjAddr: 0x23AA0, symBinAddr: 0x100028FE0, symSize: 0xA8 }
  - { offset: 0x321E7, size: 0x8, addend: 0x0, symName: __ZNKSt3__129_AllocatorDestroyRangeReverseINS_9allocatorIiEEPiEclB8ne180100Ev, symObjAddr: 0x23B48, symBinAddr: 0x100029088, symSize: 0x38C }
  - { offset: 0x32214, size: 0x8, addend: 0x0, symName: __ZNKSt3__129_AllocatorDestroyRangeReverseINS_9allocatorIiEEPiEclB8ne180100Ev, symObjAddr: 0x23B48, symBinAddr: 0x100029088, symSize: 0x38C }
  - { offset: 0x3221C, size: 0x8, addend: 0x0, symName: __ZNSt3__119__allocator_destroyB8ne180100INS_9allocatorIiEENS_16reverse_iteratorIPiEES5_EEvRT_T0_T1_, symObjAddr: 0x23ED4, symBinAddr: 0x100029414, symSize: 0x2A8 }
  - { offset: 0x32246, size: 0x8, addend: 0x0, symName: __ZNSt3__118__unwrap_iter_implIPiLb1EE8__unwrapB8ne180100ES1_, symObjAddr: 0x2417C, symBinAddr: 0x1000296BC, symSize: 0x24 }
  - { offset: 0x3224E, size: 0x8, addend: 0x0, symName: __ZNSt3__118__unwrap_iter_implIPiLb1EE8__rewrapB8ne180100ES1_S1_, symObjAddr: 0x241A0, symBinAddr: 0x1000296E0, symSize: 0x50 }
  - { offset: 0x32274, size: 0x8, addend: 0x0, symName: __ZNSt3__118__unwrap_iter_implIPiLb1EE8__rewrapB8ne180100ES1_S1_, symObjAddr: 0x241A0, symBinAddr: 0x1000296E0, symSize: 0x50 }
  - { offset: 0x3227C, size: 0x8, addend: 0x0, symName: __ZNSt3__128__exception_guard_exceptionsINS_6vectorIiNS_9allocatorIiEEE16__destroy_vectorEED2B8ne180100Ev, symObjAddr: 0x241F0, symBinAddr: 0x100029730, symSize: 0xA8 }
  - { offset: 0x322B4, size: 0x8, addend: 0x0, symName: __ZNSt3__128__exception_guard_exceptionsINS_6vectorIiNS_9allocatorIiEEE16__destroy_vectorEED2B8ne180100Ev, symObjAddr: 0x241F0, symBinAddr: 0x100029730, symSize: 0xA8 }
  - { offset: 0x322BC, size: 0x8, addend: 0x0, symName: __ZNSt3__16vectorIiNS_9allocatorIiEEE19__copy_assign_allocB8ne180100ERKS3_, symObjAddr: 0x24298, symBinAddr: 0x1000297D8, symSize: 0x2C }
  - { offset: 0x322E9, size: 0x8, addend: 0x0, symName: __ZNSt3__16vectorIiNS_9allocatorIiEEE19__copy_assign_allocB8ne180100ERKS3_, symObjAddr: 0x24298, symBinAddr: 0x1000297D8, symSize: 0x2C }
  - { offset: 0x322F1, size: 0x8, addend: 0x0, symName: __ZNSt3__16vectorIiNS_9allocatorIiEEE6assignIPiLi0EEEvT_S6_, symObjAddr: 0x242C4, symBinAddr: 0x100029804, symSize: 0x5C }
  - { offset: 0x3232D, size: 0x8, addend: 0x0, symName: __ZNSt3__16vectorIiNS_9allocatorIiEEE6assignIPiLi0EEEvT_S6_, symObjAddr: 0x242C4, symBinAddr: 0x100029804, symSize: 0x5C }
  - { offset: 0x32335, size: 0x8, addend: 0x0, symName: __ZNSt3__16vectorIiNS_9allocatorIiEEE19__copy_assign_allocB8ne180100ERKS3_NS_17integral_constantIbLb0EEE, symObjAddr: 0x24320, symBinAddr: 0x100029860, symSize: 0x14 }
  - { offset: 0x3239D, size: 0x8, addend: 0x0, symName: __ZNSt3__16vectorIiNS_9allocatorIiEEE19__copy_assign_allocB8ne180100ERKS3_NS_17integral_constantIbLb0EEE, symObjAddr: 0x24320, symBinAddr: 0x100029860, symSize: 0x14 }
  - { offset: 0x323A5, size: 0x8, addend: 0x0, symName: __ZNSt3__16vectorIiNS_9allocatorIiEEE18__assign_with_sizeB8ne180100IPiS5_EEvT_T0_l, symObjAddr: 0x24334, symBinAddr: 0x100029874, symSize: 0x3E4 }
  - { offset: 0x323ED, size: 0x8, addend: 0x0, symName: __ZNSt3__16vectorIiNS_9allocatorIiEEE18__assign_with_sizeB8ne180100IPiS5_EEvT_T0_l, symObjAddr: 0x24334, symBinAddr: 0x100029874, symSize: 0x3E4 }
  - { offset: 0x323F5, size: 0x8, addend: 0x0, symName: __ZNSt3__18distanceB8ne180100IPiEENS_15iterator_traitsIT_E15difference_typeES3_S3_, symObjAddr: 0x24718, symBinAddr: 0x100029C58, symSize: 0x2C }
  - { offset: 0x324D7, size: 0x8, addend: 0x0, symName: __ZNSt3__16vectorIiNS_9allocatorIiEEE17__destruct_at_endB8ne180100EPi, symObjAddr: 0x24DE4, symBinAddr: 0x10002A324, symSize: 0x4C }
  - { offset: 0x324DF, size: 0x8, addend: 0x0, symName: __ZNSt3__16vectorIiNS_9allocatorIiEEE13__vdeallocateEv, symObjAddr: 0x24E30, symBinAddr: 0x10002A370, symSize: 0x194 }
  - { offset: 0x3252E, size: 0x8, addend: 0x0, symName: __ZNSt3__16vectorIiNS_9allocatorIiEEE13__vdeallocateEv, symObjAddr: 0x24E30, symBinAddr: 0x10002A370, symSize: 0x194 }
  - { offset: 0x32536, size: 0x8, addend: 0x0, symName: __ZNSt3__17advanceB8ne180100IPillvEEvRT_T0_, symObjAddr: 0x24FC4, symBinAddr: 0x10002A504, symSize: 0x38 }
  - { offset: 0x32573, size: 0x8, addend: 0x0, symName: __ZNKSt3__114__copy_trivialclB8ne180100IiiLi0EEENS_4pairIPT_PT0_EES4_S4_S6_, symObjAddr: 0x25848, symBinAddr: 0x10002AD88, symSize: 0x228 }
  - { offset: 0x3257B, size: 0x8, addend: 0x0, symName: __ZNSt3__114__rewrap_rangeB8ne180100IPiS1_EET_S2_T0_, symObjAddr: 0x25A70, symBinAddr: 0x10002AFB0, symSize: 0x2C }
  - { offset: 0x32602, size: 0x8, addend: 0x0, symName: __ZNSt3__16vectorIlNS_9allocatorIlEEEC2B8ne180100Ev, symObjAddr: 0x2611C, symBinAddr: 0x10002B65C, symSize: 0x2C4 }
  - { offset: 0x3260A, size: 0x8, addend: 0x0, symName: __ZNSt3__117__compressed_pairIPlNS_9allocatorIlEEEC1B8ne180100IDnNS_18__default_init_tagEEEOT_OT0_, symObjAddr: 0x263E0, symBinAddr: 0x10002B920, symSize: 0x3C }
  - { offset: 0x32638, size: 0x8, addend: 0x0, symName: __ZNSt3__117__compressed_pairIPlNS_9allocatorIlEEEC1B8ne180100IDnNS_18__default_init_tagEEEOT_OT0_, symObjAddr: 0x263E0, symBinAddr: 0x10002B920, symSize: 0x3C }
  - { offset: 0x32640, size: 0x8, addend: 0x0, symName: __ZNSt3__117__compressed_pairIPlNS_9allocatorIlEEEC2B8ne180100IDnNS_18__default_init_tagEEEOT_OT0_, symObjAddr: 0x2641C, symBinAddr: 0x10002B95C, symSize: 0x40 }
  - { offset: 0x326AB, size: 0x8, addend: 0x0, symName: __ZNSt3__117__compressed_pairIPlNS_9allocatorIlEEEC2B8ne180100IDnNS_18__default_init_tagEEEOT_OT0_, symObjAddr: 0x2641C, symBinAddr: 0x10002B95C, symSize: 0x40 }
  - { offset: 0x326B3, size: 0x8, addend: 0x0, symName: __ZNSt3__122__compressed_pair_elemIPlLi0ELb0EEC2B8ne180100IDnvEEOT_, symObjAddr: 0x2645C, symBinAddr: 0x10002B99C, symSize: 0x64 }
  - { offset: 0x3271E, size: 0x8, addend: 0x0, symName: __ZNSt3__122__compressed_pair_elemIPlLi0ELb0EEC2B8ne180100IDnvEEOT_, symObjAddr: 0x2645C, symBinAddr: 0x10002B99C, symSize: 0x64 }
  - { offset: 0x32726, size: 0x8, addend: 0x0, symName: __ZNSt3__122__compressed_pair_elemINS_9allocatorIlEELi1ELb1EEC2B8ne180100ENS_18__default_init_tagE, symObjAddr: 0x264C0, symBinAddr: 0x10002BA00, symSize: 0x2C }
  - { offset: 0x32773, size: 0x8, addend: 0x0, symName: __ZNSt3__122__compressed_pair_elemINS_9allocatorIlEELi1ELb1EEC2B8ne180100ENS_18__default_init_tagE, symObjAddr: 0x264C0, symBinAddr: 0x10002BA00, symSize: 0x2C }
  - { offset: 0x3277B, size: 0x8, addend: 0x0, symName: __ZNSt3__19allocatorIlEC2B8ne180100Ev, symObjAddr: 0x264EC, symBinAddr: 0x10002BA2C, symSize: 0x2C }
  - { offset: 0x327B6, size: 0x8, addend: 0x0, symName: __ZNSt3__19allocatorIlEC2B8ne180100Ev, symObjAddr: 0x264EC, symBinAddr: 0x10002BA2C, symSize: 0x2C }
  - { offset: 0x327BE, size: 0x8, addend: 0x0, symName: __ZNSt3__116__non_trivial_ifILb1ENS_9allocatorIlEEEC2B8ne180100Ev, symObjAddr: 0x26518, symBinAddr: 0x10002BA58, symSize: 0x14 }
  - { offset: 0x327EB, size: 0x8, addend: 0x0, symName: __ZNSt3__116__non_trivial_ifILb1ENS_9allocatorIlEEEC2B8ne180100Ev, symObjAddr: 0x26518, symBinAddr: 0x10002BA58, symSize: 0x14 }
  - { offset: 0x327F3, size: 0x8, addend: 0x0, symName: __ZNSt3__16vectorIlNS_9allocatorIlEEED2B8ne180100Ev, symObjAddr: 0x2652C, symBinAddr: 0x10002BA6C, symSize: 0x1D8 }
  - { offset: 0x32821, size: 0x8, addend: 0x0, symName: __ZNSt3__16vectorIlNS_9allocatorIlEEED2B8ne180100Ev, symObjAddr: 0x2652C, symBinAddr: 0x10002BA6C, symSize: 0x1D8 }
  - { offset: 0x32829, size: 0x8, addend: 0x0, symName: __ZNSt3__16vectorIlNS_9allocatorIlEEE16__destroy_vectorC1B8ne180100ERS3_, symObjAddr: 0x26704, symBinAddr: 0x10002BC44, symSize: 0x34 }
  - { offset: 0x32857, size: 0x8, addend: 0x0, symName: __ZNSt3__16vectorIlNS_9allocatorIlEEE16__destroy_vectorC1B8ne180100ERS3_, symObjAddr: 0x26704, symBinAddr: 0x10002BC44, symSize: 0x34 }
  - { offset: 0x3285F, size: 0x8, addend: 0x0, symName: __ZNSt3__16vectorIlNS_9allocatorIlEEE16__destroy_vectorclB8ne180100Ev, symObjAddr: 0x26738, symBinAddr: 0x10002BC78, symSize: 0x228 }
  - { offset: 0x3289F, size: 0x8, addend: 0x0, symName: __ZNSt3__16vectorIlNS_9allocatorIlEEE16__destroy_vectorclB8ne180100Ev, symObjAddr: 0x26738, symBinAddr: 0x10002BC78, symSize: 0x228 }
  - { offset: 0x328A7, size: 0x8, addend: 0x0, symName: __ZNSt3__16vectorIlNS_9allocatorIlEEE16__destroy_vectorC2B8ne180100ERS3_, symObjAddr: 0x26960, symBinAddr: 0x10002BEA0, symSize: 0x70 }
  - { offset: 0x328D0, size: 0x8, addend: 0x0, symName: __ZNSt3__16vectorIlNS_9allocatorIlEEE16__destroy_vectorC2B8ne180100ERS3_, symObjAddr: 0x26960, symBinAddr: 0x10002BEA0, symSize: 0x70 }
  - { offset: 0x328D8, size: 0x8, addend: 0x0, symName: __ZNSt3__16vectorIlNS_9allocatorIlEEE7__clearB8ne180100Ev, symObjAddr: 0x269D0, symBinAddr: 0x10002BF10, symSize: 0x64 }
  - { offset: 0x32918, size: 0x8, addend: 0x0, symName: __ZNSt3__16vectorIlNS_9allocatorIlEEE7__clearB8ne180100Ev, symObjAddr: 0x269D0, symBinAddr: 0x10002BF10, symSize: 0x64 }
  - { offset: 0x32920, size: 0x8, addend: 0x0, symName: __ZNKSt3__16vectorIlNS_9allocatorIlEEE17__annotate_deleteB8ne180100Ev, symObjAddr: 0x26A34, symBinAddr: 0x10002BF74, symSize: 0xA0 }
  - { offset: 0x32949, size: 0x8, addend: 0x0, symName: __ZNKSt3__16vectorIlNS_9allocatorIlEEE17__annotate_deleteB8ne180100Ev, symObjAddr: 0x26A34, symBinAddr: 0x10002BF74, symSize: 0xA0 }
  - { offset: 0x32951, size: 0x8, addend: 0x0, symName: __ZNSt3__116allocator_traitsINS_9allocatorIlEEE10deallocateB8ne180100ERS2_Plm, symObjAddr: 0x26AD4, symBinAddr: 0x10002C014, symSize: 0x34 }
  - { offset: 0x3297A, size: 0x8, addend: 0x0, symName: __ZNSt3__116allocator_traitsINS_9allocatorIlEEE10deallocateB8ne180100ERS2_Plm, symObjAddr: 0x26AD4, symBinAddr: 0x10002C014, symSize: 0x34 }
  - { offset: 0x32982, size: 0x8, addend: 0x0, symName: __ZNSt3__16vectorIlNS_9allocatorIlEEE7__allocB8ne180100Ev, symObjAddr: 0x26B08, symBinAddr: 0x10002C048, symSize: 0x28 }
  - { offset: 0x329CF, size: 0x8, addend: 0x0, symName: __ZNSt3__16vectorIlNS_9allocatorIlEEE7__allocB8ne180100Ev, symObjAddr: 0x26B08, symBinAddr: 0x10002C048, symSize: 0x28 }
  - { offset: 0x329D7, size: 0x8, addend: 0x0, symName: __ZNKSt3__16vectorIlNS_9allocatorIlEEE8capacityB8ne180100Ev, symObjAddr: 0x26B30, symBinAddr: 0x10002C070, symSize: 0xBC }
  - { offset: 0x32A00, size: 0x8, addend: 0x0, symName: __ZNKSt3__16vectorIlNS_9allocatorIlEEE8capacityB8ne180100Ev, symObjAddr: 0x26B30, symBinAddr: 0x10002C070, symSize: 0xBC }
  - { offset: 0x32A08, size: 0x8, addend: 0x0, symName: __ZNSt3__16vectorIlNS_9allocatorIlEEE22__base_destruct_at_endB8ne180100EPl, symObjAddr: 0x26BEC, symBinAddr: 0x10002C12C, symSize: 0x128 }
  - { offset: 0x32A31, size: 0x8, addend: 0x0, symName: __ZNSt3__16vectorIlNS_9allocatorIlEEE22__base_destruct_at_endB8ne180100EPl, symObjAddr: 0x26BEC, symBinAddr: 0x10002C12C, symSize: 0x128 }
  - { offset: 0x32A39, size: 0x8, addend: 0x0, symName: __ZNSt3__116allocator_traitsINS_9allocatorIlEEE7destroyB8ne180100IlvEEvRS2_PT_, symObjAddr: 0x26D14, symBinAddr: 0x10002C254, symSize: 0x2C }
  - { offset: 0x32A88, size: 0x8, addend: 0x0, symName: __ZNSt3__116allocator_traitsINS_9allocatorIlEEE7destroyB8ne180100IlvEEvRS2_PT_, symObjAddr: 0x26D14, symBinAddr: 0x10002C254, symSize: 0x2C }
  - { offset: 0x32A90, size: 0x8, addend: 0x0, symName: __ZNSt3__112__to_addressB8ne180100IlEEPT_S2_, symObjAddr: 0x26D40, symBinAddr: 0x10002C280, symSize: 0x14 }
  - { offset: 0x32AD8, size: 0x8, addend: 0x0, symName: __ZNSt3__19allocatorIlE7destroyB8ne180100EPl, symObjAddr: 0x26D54, symBinAddr: 0x10002C294, symSize: 0x14 }
  - { offset: 0x32AE0, size: 0x8, addend: 0x0, symName: __ZNKSt3__16vectorIlNS_9allocatorIlEEE31__annotate_contiguous_containerB8ne180100EPKvS5_, symObjAddr: 0x26D68, symBinAddr: 0x10002C2A8, symSize: 0x98 }
  - { offset: 0x32B1C, size: 0x8, addend: 0x0, symName: __ZNKSt3__16vectorIlNS_9allocatorIlEEE31__annotate_contiguous_containerB8ne180100EPKvS5_, symObjAddr: 0x26D68, symBinAddr: 0x10002C2A8, symSize: 0x98 }
  - { offset: 0x32B24, size: 0x8, addend: 0x0, symName: __ZNKSt3__16vectorIlNS_9allocatorIlEEE4dataB8ne180100Ev, symObjAddr: 0x26E00, symBinAddr: 0x10002C340, symSize: 0x64 }
  - { offset: 0x32B99, size: 0x8, addend: 0x0, symName: __ZNKSt3__16vectorIlNS_9allocatorIlEEE4dataB8ne180100Ev, symObjAddr: 0x26E00, symBinAddr: 0x10002C340, symSize: 0x64 }
  - { offset: 0x32BA1, size: 0x8, addend: 0x0, symName: __ZNSt3__19allocatorIlE10deallocateB8ne180100EPlm, symObjAddr: 0x26E64, symBinAddr: 0x10002C3A4, symSize: 0x7C }
  - { offset: 0x32BCA, size: 0x8, addend: 0x0, symName: __ZNSt3__19allocatorIlE10deallocateB8ne180100EPlm, symObjAddr: 0x26E64, symBinAddr: 0x10002C3A4, symSize: 0x7C }
  - { offset: 0x32BD2, size: 0x8, addend: 0x0, symName: __ZNSt3__117__compressed_pairIPlNS_9allocatorIlEEE6secondB8ne180100Ev, symObjAddr: 0x26EE0, symBinAddr: 0x10002C420, symSize: 0x24 }
  - { offset: 0x32C1F, size: 0x8, addend: 0x0, symName: __ZNSt3__117__compressed_pairIPlNS_9allocatorIlEEE6secondB8ne180100Ev, symObjAddr: 0x26EE0, symBinAddr: 0x10002C420, symSize: 0x24 }
  - { offset: 0x32C27, size: 0x8, addend: 0x0, symName: __ZNSt3__122__compressed_pair_elemINS_9allocatorIlEELi1ELb1EE5__getB8ne180100Ev, symObjAddr: 0x26F04, symBinAddr: 0x10002C444, symSize: 0x14 }
  - { offset: 0x32C50, size: 0x8, addend: 0x0, symName: __ZNSt3__122__compressed_pair_elemINS_9allocatorIlEELi1ELb1EE5__getB8ne180100Ev, symObjAddr: 0x26F04, symBinAddr: 0x10002C444, symSize: 0x14 }
  - { offset: 0x32C58, size: 0x8, addend: 0x0, symName: __ZNKSt3__16vectorIlNS_9allocatorIlEEE9__end_capB8ne180100Ev, symObjAddr: 0x26F18, symBinAddr: 0x10002C458, symSize: 0x28 }
  - { offset: 0x32C82, size: 0x8, addend: 0x0, symName: __ZNKSt3__16vectorIlNS_9allocatorIlEEE9__end_capB8ne180100Ev, symObjAddr: 0x26F18, symBinAddr: 0x10002C458, symSize: 0x28 }
  - { offset: 0x32C8A, size: 0x8, addend: 0x0, symName: __ZNKSt3__117__compressed_pairIPlNS_9allocatorIlEEE5firstB8ne180100Ev, symObjAddr: 0x26F40, symBinAddr: 0x10002C480, symSize: 0x24 }
  - { offset: 0x32CB3, size: 0x8, addend: 0x0, symName: __ZNKSt3__117__compressed_pairIPlNS_9allocatorIlEEE5firstB8ne180100Ev, symObjAddr: 0x26F40, symBinAddr: 0x10002C480, symSize: 0x24 }
  - { offset: 0x32CBB, size: 0x8, addend: 0x0, symName: __ZNKSt3__122__compressed_pair_elemIPlLi0ELb0EE5__getB8ne180100Ev, symObjAddr: 0x26F64, symBinAddr: 0x10002C4A4, symSize: 0x14 }
  - { offset: 0x32CE4, size: 0x8, addend: 0x0, symName: __ZNKSt3__122__compressed_pair_elemIPlLi0ELb0EE5__getB8ne180100Ev, symObjAddr: 0x26F64, symBinAddr: 0x10002C4A4, symSize: 0x14 }
  - { offset: 0x32CEC, size: 0x8, addend: 0x0, symName: __ZNSt3__16vectorIlNS_9allocatorIlEEE9__end_capB8ne180100Ev, symObjAddr: 0x26F78, symBinAddr: 0x10002C4B8, symSize: 0x28 }
  - { offset: 0x32D16, size: 0x8, addend: 0x0, symName: __ZNSt3__16vectorIlNS_9allocatorIlEEE9__end_capB8ne180100Ev, symObjAddr: 0x26F78, symBinAddr: 0x10002C4B8, symSize: 0x28 }
  - { offset: 0x32D1E, size: 0x8, addend: 0x0, symName: __ZNSt3__16vectorIlNS_9allocatorIlEEE22__construct_one_at_endB8ne180100IJlEEEvDpOT_, symObjAddr: 0x26FA0, symBinAddr: 0x10002C4E0, symSize: 0x3CC }
  - { offset: 0x32D50, size: 0x8, addend: 0x0, symName: __ZNSt3__16vectorIlNS_9allocatorIlEEE22__construct_one_at_endB8ne180100IJlEEEvDpOT_, symObjAddr: 0x26FA0, symBinAddr: 0x10002C4E0, symSize: 0x3CC }
  - { offset: 0x32D58, size: 0x8, addend: 0x0, symName: __ZNSt3__16vectorIlNS_9allocatorIlEEE21__push_back_slow_pathIlEEPlOT_, symObjAddr: 0x2736C, symBinAddr: 0x10002C8AC, symSize: 0x468 }
  - { offset: 0x32DBC, size: 0x8, addend: 0x0, symName: __ZNSt3__16vectorIlNS_9allocatorIlEEE21__push_back_slow_pathIlEEPlOT_, symObjAddr: 0x2736C, symBinAddr: 0x10002C8AC, symSize: 0x468 }
  - { offset: 0x32DC4, size: 0x8, addend: 0x0, symName: __ZNSt3__117__compressed_pairIPlNS_9allocatorIlEEE5firstB8ne180100Ev, symObjAddr: 0x277D4, symBinAddr: 0x10002CD14, symSize: 0x24 }
  - { offset: 0x32E3C, size: 0x8, addend: 0x0, symName: __ZNSt3__117__compressed_pairIPlNS_9allocatorIlEEE5firstB8ne180100Ev, symObjAddr: 0x277D4, symBinAddr: 0x10002CD14, symSize: 0x24 }
  - { offset: 0x32E44, size: 0x8, addend: 0x0, symName: __ZNSt3__122__compressed_pair_elemIPlLi0ELb0EE5__getB8ne180100Ev, symObjAddr: 0x277F8, symBinAddr: 0x10002CD38, symSize: 0x14 }
  - { offset: 0x32E6D, size: 0x8, addend: 0x0, symName: __ZNSt3__122__compressed_pair_elemIPlLi0ELb0EE5__getB8ne180100Ev, symObjAddr: 0x277F8, symBinAddr: 0x10002CD38, symSize: 0x14 }
  - { offset: 0x32E75, size: 0x8, addend: 0x0, symName: __ZNSt3__16vectorIlNS_9allocatorIlEEE21_ConstructTransactionC1B8ne180100ERS3_m, symObjAddr: 0x2780C, symBinAddr: 0x10002CD4C, symSize: 0x3C }
  - { offset: 0x32ECC, size: 0x8, addend: 0x0, symName: __ZNSt3__16vectorIlNS_9allocatorIlEEE21_ConstructTransactionC1B8ne180100ERS3_m, symObjAddr: 0x2780C, symBinAddr: 0x10002CD4C, symSize: 0x3C }
  - { offset: 0x32ED4, size: 0x8, addend: 0x0, symName: __ZNSt3__116allocator_traitsINS_9allocatorIlEEE9constructB8ne180100IlJlEvEEvRS2_PT_DpOT0_, symObjAddr: 0x27848, symBinAddr: 0x10002CD88, symSize: 0x34 }
  - { offset: 0x32F27, size: 0x8, addend: 0x0, symName: __ZNSt3__116allocator_traitsINS_9allocatorIlEEE9constructB8ne180100IlJlEvEEvRS2_PT_DpOT0_, symObjAddr: 0x27848, symBinAddr: 0x10002CD88, symSize: 0x34 }
  - { offset: 0x32F2F, size: 0x8, addend: 0x0, symName: __ZNSt3__16vectorIlNS_9allocatorIlEEE21_ConstructTransactionD1B8ne180100Ev, symObjAddr: 0x2787C, symBinAddr: 0x10002CDBC, symSize: 0x2C }
  - { offset: 0x32F99, size: 0x8, addend: 0x0, symName: __ZNSt3__16vectorIlNS_9allocatorIlEEE21_ConstructTransactionD1B8ne180100Ev, symObjAddr: 0x2787C, symBinAddr: 0x10002CDBC, symSize: 0x2C }
  - { offset: 0x32FA1, size: 0x8, addend: 0x0, symName: __ZNSt3__16vectorIlNS_9allocatorIlEEE21_ConstructTransactionC2B8ne180100ERS3_m, symObjAddr: 0x278A8, symBinAddr: 0x10002CDE8, symSize: 0x1D0 }
  - { offset: 0x32FCE, size: 0x8, addend: 0x0, symName: __ZNSt3__16vectorIlNS_9allocatorIlEEE21_ConstructTransactionC2B8ne180100ERS3_m, symObjAddr: 0x278A8, symBinAddr: 0x10002CDE8, symSize: 0x1D0 }
  - { offset: 0x32FD6, size: 0x8, addend: 0x0, symName: __ZNKSt3__16vectorIlNS_9allocatorIlEEE19__annotate_increaseB8ne180100Em, symObjAddr: 0x27A78, symBinAddr: 0x10002CFB8, symSize: 0xAC }
  - { offset: 0x33029, size: 0x8, addend: 0x0, symName: __ZNKSt3__16vectorIlNS_9allocatorIlEEE19__annotate_increaseB8ne180100Em, symObjAddr: 0x27A78, symBinAddr: 0x10002CFB8, symSize: 0xAC }
  - { offset: 0x33031, size: 0x8, addend: 0x0, symName: __ZNSt3__19allocatorIlE9constructB8ne180100IlJlEEEvPT_DpOT0_, symObjAddr: 0x27B24, symBinAddr: 0x10002D064, symSize: 0xB4 }
  - { offset: 0x3306D, size: 0x8, addend: 0x0, symName: __ZNSt3__19allocatorIlE9constructB8ne180100IlJlEEEvPT_DpOT0_, symObjAddr: 0x27B24, symBinAddr: 0x10002D064, symSize: 0xB4 }
  - { offset: 0x33075, size: 0x8, addend: 0x0, symName: __ZNSt3__16vectorIlNS_9allocatorIlEEE21_ConstructTransactionD2B8ne180100Ev, symObjAddr: 0x27BD8, symBinAddr: 0x10002D118, symSize: 0x278 }
  - { offset: 0x330DE, size: 0x8, addend: 0x0, symName: __ZNSt3__16vectorIlNS_9allocatorIlEEE21_ConstructTransactionD2B8ne180100Ev, symObjAddr: 0x27BD8, symBinAddr: 0x10002D118, symSize: 0x278 }
  - { offset: 0x330E6, size: 0x8, addend: 0x0, symName: __ZNKSt3__16vectorIlNS_9allocatorIlEEE17__annotate_shrinkB8ne180100Em, symObjAddr: 0x27E50, symBinAddr: 0x10002D390, symSize: 0x9C }
  - { offset: 0x33113, size: 0x8, addend: 0x0, symName: __ZNKSt3__16vectorIlNS_9allocatorIlEEE17__annotate_shrinkB8ne180100Em, symObjAddr: 0x27E50, symBinAddr: 0x10002D390, symSize: 0x9C }
  - { offset: 0x3311B, size: 0x8, addend: 0x0, symName: __ZNKSt3__16vectorIlNS_9allocatorIlEEE11__recommendB8ne180100Em, symObjAddr: 0x27EEC, symBinAddr: 0x10002D42C, symSize: 0x374 }
  - { offset: 0x33157, size: 0x8, addend: 0x0, symName: __ZNKSt3__16vectorIlNS_9allocatorIlEEE11__recommendB8ne180100Em, symObjAddr: 0x27EEC, symBinAddr: 0x10002D42C, symSize: 0x374 }
  - { offset: 0x3315F, size: 0x8, addend: 0x0, symName: __ZNSt3__114__split_bufferIlRNS_9allocatorIlEEEC1EmmS3_, symObjAddr: 0x28260, symBinAddr: 0x10002D7A0, symSize: 0x44 }
  - { offset: 0x331CB, size: 0x8, addend: 0x0, symName: __ZNSt3__114__split_bufferIlRNS_9allocatorIlEEEC1EmmS3_, symObjAddr: 0x28260, symBinAddr: 0x10002D7A0, symSize: 0x44 }
  - { offset: 0x331D3, size: 0x8, addend: 0x0, symName: __ZNSt3__16vectorIlNS_9allocatorIlEEE26__swap_out_circular_bufferERNS_14__split_bufferIlRS2_EE, symObjAddr: 0x282A4, symBinAddr: 0x10002D7E4, symSize: 0x564 }
  - { offset: 0x33239, size: 0x8, addend: 0x0, symName: __ZNSt3__114__split_bufferIlRNS_9allocatorIlEEED1Ev, symObjAddr: 0x28808, symBinAddr: 0x10002DD48, symSize: 0x2C }
  - { offset: 0x33241, size: 0x8, addend: 0x0, symName: __ZNKSt3__16vectorIlNS_9allocatorIlEEE8max_sizeEv, symObjAddr: 0x28834, symBinAddr: 0x10002DD74, symSize: 0x340 }
  - { offset: 0x33270, size: 0x8, addend: 0x0, symName: __ZNKSt3__16vectorIlNS_9allocatorIlEEE8max_sizeEv, symObjAddr: 0x28834, symBinAddr: 0x10002DD74, symSize: 0x340 }
  - { offset: 0x33278, size: 0x8, addend: 0x0, symName: __ZNKSt3__16vectorIlNS_9allocatorIlEEE20__throw_length_errorB8ne180100Ev, symObjAddr: 0x28B74, symBinAddr: 0x10002E0B4, symSize: 0x20 }
  - { offset: 0x332A4, size: 0x8, addend: 0x0, symName: __ZNKSt3__16vectorIlNS_9allocatorIlEEE20__throw_length_errorB8ne180100Ev, symObjAddr: 0x28B74, symBinAddr: 0x10002E0B4, symSize: 0x20 }
  - { offset: 0x332AC, size: 0x8, addend: 0x0, symName: __ZNSt3__116allocator_traitsINS_9allocatorIlEEE8max_sizeB8ne180100IS2_vEEmRKS2_, symObjAddr: 0x28B94, symBinAddr: 0x10002E0D4, symSize: 0x24 }
  - { offset: 0x332E7, size: 0x8, addend: 0x0, symName: __ZNSt3__116allocator_traitsINS_9allocatorIlEEE8max_sizeB8ne180100IS2_vEEmRKS2_, symObjAddr: 0x28B94, symBinAddr: 0x10002E0D4, symSize: 0x24 }
  - { offset: 0x332EF, size: 0x8, addend: 0x0, symName: __ZNKSt3__16vectorIlNS_9allocatorIlEEE7__allocB8ne180100Ev, symObjAddr: 0x28BB8, symBinAddr: 0x10002E0F8, symSize: 0x28 }
  - { offset: 0x33324, size: 0x8, addend: 0x0, symName: __ZNKSt3__16vectorIlNS_9allocatorIlEEE7__allocB8ne180100Ev, symObjAddr: 0x28BB8, symBinAddr: 0x10002E0F8, symSize: 0x28 }
  - { offset: 0x3332C, size: 0x8, addend: 0x0, symName: __ZNKSt3__19allocatorIlE8max_sizeB8ne180100Ev, symObjAddr: 0x28BE0, symBinAddr: 0x10002E120, symSize: 0x14 }
  - { offset: 0x33355, size: 0x8, addend: 0x0, symName: __ZNKSt3__19allocatorIlE8max_sizeB8ne180100Ev, symObjAddr: 0x28BE0, symBinAddr: 0x10002E120, symSize: 0x14 }
  - { offset: 0x3335D, size: 0x8, addend: 0x0, symName: __ZNKSt3__117__compressed_pairIPlNS_9allocatorIlEEE6secondB8ne180100Ev, symObjAddr: 0x28BF4, symBinAddr: 0x10002E134, symSize: 0x24 }
  - { offset: 0x33387, size: 0x8, addend: 0x0, symName: __ZNKSt3__117__compressed_pairIPlNS_9allocatorIlEEE6secondB8ne180100Ev, symObjAddr: 0x28BF4, symBinAddr: 0x10002E134, symSize: 0x24 }
  - { offset: 0x3338F, size: 0x8, addend: 0x0, symName: __ZNKSt3__122__compressed_pair_elemINS_9allocatorIlEELi1ELb1EE5__getB8ne180100Ev, symObjAddr: 0x28C18, symBinAddr: 0x10002E158, symSize: 0x14 }
  - { offset: 0x333B8, size: 0x8, addend: 0x0, symName: __ZNKSt3__122__compressed_pair_elemINS_9allocatorIlEELi1ELb1EE5__getB8ne180100Ev, symObjAddr: 0x28C18, symBinAddr: 0x10002E158, symSize: 0x14 }
  - { offset: 0x333C0, size: 0x8, addend: 0x0, symName: __ZNSt3__114__split_bufferIlRNS_9allocatorIlEEEC2EmmS3_, symObjAddr: 0x28C2C, symBinAddr: 0x10002E16C, symSize: 0x510 }
  - { offset: 0x333EB, size: 0x8, addend: 0x0, symName: __ZNSt3__114__split_bufferIlRNS_9allocatorIlEEEC2EmmS3_, symObjAddr: 0x28C2C, symBinAddr: 0x10002E16C, symSize: 0x510 }
  - { offset: 0x333F3, size: 0x8, addend: 0x0, symName: __ZNSt3__117__compressed_pairIPlRNS_9allocatorIlEEEC1B8ne180100IDnS4_EEOT_OT0_, symObjAddr: 0x2913C, symBinAddr: 0x10002E67C, symSize: 0x3C }
  - { offset: 0x33485, size: 0x8, addend: 0x0, symName: __ZNSt3__117__compressed_pairIPlRNS_9allocatorIlEEEC1B8ne180100IDnS4_EEOT_OT0_, symObjAddr: 0x2913C, symBinAddr: 0x10002E67C, symSize: 0x3C }
  - { offset: 0x3348D, size: 0x8, addend: 0x0, symName: __ZNSt3__119__allocate_at_leastB8ne180100INS_9allocatorIlEEEENS_19__allocation_resultINS_16allocator_traitsIT_E7pointerEEERS5_m, symObjAddr: 0x29178, symBinAddr: 0x10002E6B8, symSize: 0x284 }
  - { offset: 0x334F8, size: 0x8, addend: 0x0, symName: __ZNSt3__114__split_bufferIlRNS_9allocatorIlEEE7__allocB8ne180100Ev, symObjAddr: 0x293FC, symBinAddr: 0x10002E93C, symSize: 0x28 }
  - { offset: 0x33500, size: 0x8, addend: 0x0, symName: __ZNSt3__114__split_bufferIlRNS_9allocatorIlEEE9__end_capB8ne180100Ev, symObjAddr: 0x29424, symBinAddr: 0x10002E964, symSize: 0x28 }
  - { offset: 0x33529, size: 0x8, addend: 0x0, symName: __ZNSt3__114__split_bufferIlRNS_9allocatorIlEEE9__end_capB8ne180100Ev, symObjAddr: 0x29424, symBinAddr: 0x10002E964, symSize: 0x28 }
  - { offset: 0x33531, size: 0x8, addend: 0x0, symName: __ZNSt3__117__compressed_pairIPlRNS_9allocatorIlEEEC2B8ne180100IDnS4_EEOT_OT0_, symObjAddr: 0x2944C, symBinAddr: 0x10002E98C, symSize: 0x48 }
  - { offset: 0x3355A, size: 0x8, addend: 0x0, symName: __ZNSt3__117__compressed_pairIPlRNS_9allocatorIlEEEC2B8ne180100IDnS4_EEOT_OT0_, symObjAddr: 0x2944C, symBinAddr: 0x10002E98C, symSize: 0x48 }
  - { offset: 0x33562, size: 0x8, addend: 0x0, symName: __ZNSt3__122__compressed_pair_elemIRNS_9allocatorIlEELi1ELb0EEC2B8ne180100IS3_vEEOT_, symObjAddr: 0x29494, symBinAddr: 0x10002E9D4, symSize: 0x70 }
  - { offset: 0x335CD, size: 0x8, addend: 0x0, symName: __ZNSt3__122__compressed_pair_elemIRNS_9allocatorIlEELi1ELb0EEC2B8ne180100IS3_vEEOT_, symObjAddr: 0x29494, symBinAddr: 0x10002E9D4, symSize: 0x70 }
  - { offset: 0x335D5, size: 0x8, addend: 0x0, symName: __ZNSt3__19allocatorIlE8allocateB8ne180100Em, symObjAddr: 0x29504, symBinAddr: 0x10002EA44, symSize: 0x88 }
  - { offset: 0x33622, size: 0x8, addend: 0x0, symName: __ZNSt3__19allocatorIlE8allocateB8ne180100Em, symObjAddr: 0x29504, symBinAddr: 0x10002EA44, symSize: 0x88 }
  - { offset: 0x3362A, size: 0x8, addend: 0x0, symName: __ZNSt3__117__compressed_pairIPlRNS_9allocatorIlEEE6secondB8ne180100Ev, symObjAddr: 0x2958C, symBinAddr: 0x10002EACC, symSize: 0x28 }
  - { offset: 0x33665, size: 0x8, addend: 0x0, symName: __ZNSt3__117__compressed_pairIPlRNS_9allocatorIlEEE6secondB8ne180100Ev, symObjAddr: 0x2958C, symBinAddr: 0x10002EACC, symSize: 0x28 }
  - { offset: 0x3366D, size: 0x8, addend: 0x0, symName: __ZNSt3__122__compressed_pair_elemIRNS_9allocatorIlEELi1ELb0EE5__getB8ne180100Ev, symObjAddr: 0x295B4, symBinAddr: 0x10002EAF4, symSize: 0x60 }
  - { offset: 0x33696, size: 0x8, addend: 0x0, symName: __ZNSt3__122__compressed_pair_elemIRNS_9allocatorIlEELi1ELb0EE5__getB8ne180100Ev, symObjAddr: 0x295B4, symBinAddr: 0x10002EAF4, symSize: 0x60 }
  - { offset: 0x3369E, size: 0x8, addend: 0x0, symName: __ZNSt3__117__compressed_pairIPlRNS_9allocatorIlEEE5firstB8ne180100Ev, symObjAddr: 0x29614, symBinAddr: 0x10002EB54, symSize: 0x24 }
  - { offset: 0x336C7, size: 0x8, addend: 0x0, symName: __ZNSt3__117__compressed_pairIPlRNS_9allocatorIlEEE5firstB8ne180100Ev, symObjAddr: 0x29614, symBinAddr: 0x10002EB54, symSize: 0x24 }
  - { offset: 0x336CF, size: 0x8, addend: 0x0, symName: __ZNSt3__142__uninitialized_allocator_move_if_noexceptB8ne180100INS_9allocatorIlEENS_16reverse_iteratorIPlEES5_lvEET1_RT_T0_S9_S6_, symObjAddr: 0x29638, symBinAddr: 0x10002EB78, symSize: 0x548 }
  - { offset: 0x336F8, size: 0x8, addend: 0x0, symName: __ZNSt3__116reverse_iteratorIPlEC1B8ne180100ES1_, symObjAddr: 0x29B80, symBinAddr: 0x10002F0C0, symSize: 0x34 }
  - { offset: 0x33700, size: 0x8, addend: 0x0, symName: __ZNKSt3__116reverse_iteratorIPlE4baseB8ne180100Ev, symObjAddr: 0x29BB4, symBinAddr: 0x10002F0F4, symSize: 0x64 }
  - { offset: 0x3373F, size: 0x8, addend: 0x0, symName: __ZNKSt3__116reverse_iteratorIPlE4baseB8ne180100Ev, symObjAddr: 0x29BB4, symBinAddr: 0x10002F0F4, symSize: 0x64 }
  - { offset: 0x33747, size: 0x8, addend: 0x0, symName: __ZNSt3__14swapB8ne180100IPlEEvRT_S3_, symObjAddr: 0x29C18, symBinAddr: 0x10002F158, symSize: 0x134 }
  - { offset: 0x33770, size: 0x8, addend: 0x0, symName: __ZNKSt3__16vectorIlNS_9allocatorIlEEE14__annotate_newB8ne180100Em, symObjAddr: 0x29D4C, symBinAddr: 0x10002F28C, symSize: 0x94 }
  - { offset: 0x33778, size: 0x8, addend: 0x0, symName: __ZNSt3__1neB8ne180100IPlS1_EEbRKNS_16reverse_iteratorIT_EERKNS2_IT0_EE, symObjAddr: 0x29DE0, symBinAddr: 0x10002F320, symSize: 0x48 }
  - { offset: 0x337B4, size: 0x8, addend: 0x0, symName: __ZNKSt3__116reverse_iteratorIPlEdeB8ne180100Ev, symObjAddr: 0x29EFC, symBinAddr: 0x10002F43C, symSize: 0x74 }
  - { offset: 0x337BC, size: 0x8, addend: 0x0, symName: __ZNSt3__116reverse_iteratorIPlEppB8ne180100Ev, symObjAddr: 0x29F70, symBinAddr: 0x10002F4B0, symSize: 0x6C }
  - { offset: 0x337F7, size: 0x8, addend: 0x0, symName: __ZNSt3__116reverse_iteratorIPlEppB8ne180100Ev, symObjAddr: 0x29F70, symBinAddr: 0x10002F4B0, symSize: 0x6C }
  - { offset: 0x337FF, size: 0x8, addend: 0x0, symName: __ZNSt3__14moveB8ne180100INS_16reverse_iteratorIPlEES3_EET0_T_S5_S4_, symObjAddr: 0x29FDC, symBinAddr: 0x10002F51C, symSize: 0x4B0 }
  - { offset: 0x33831, size: 0x8, addend: 0x0, symName: __ZNSt3__119__to_address_helperINS_16reverse_iteratorIPlEEvE6__callB8ne180100ERKS3_, symObjAddr: 0x2A48C, symBinAddr: 0x10002F9CC, symSize: 0x58 }
  - { offset: 0x33839, size: 0x8, addend: 0x0, symName: __ZNKSt3__116reverse_iteratorIPlEptB8ne180100Ev, symObjAddr: 0x2A4E4, symBinAddr: 0x10002FA24, symSize: 0x24 }
  - { offset: 0x3385F, size: 0x8, addend: 0x0, symName: __ZNKSt3__116reverse_iteratorIPlEptB8ne180100Ev, symObjAddr: 0x2A4E4, symBinAddr: 0x10002FA24, symSize: 0x24 }
  - { offset: 0x33867, size: 0x8, addend: 0x0, symName: __ZNSt3__16__moveB8ne180100INS_17_ClassicAlgPolicyENS_16reverse_iteratorIPlEES4_S4_EENS_4pairIT0_T2_EES6_T1_S7_, symObjAddr: 0x2A508, symBinAddr: 0x10002FA48, symSize: 0x41C }
  - { offset: 0x338BD, size: 0x8, addend: 0x0, symName: __ZNKSt3__111__move_loopINS_17_ClassicAlgPolicyEEclB8ne180100INS_16reverse_iteratorIPlEES6_S6_EENS_4pairIT_T1_EES8_T0_S9_, symObjAddr: 0x2BA00, symBinAddr: 0x100030F40, symSize: 0x398 }
  - { offset: 0x338C5, size: 0x8, addend: 0x0, symName: __ZNSt3__113__unwrap_iterB8ne180100INS_16reverse_iteratorIPlEENS_18__unwrap_iter_implIS3_Lb0EEELi0EEEDTclsrT0_8__unwrapclsr3stdE7declvalIT_EEEES7_, symObjAddr: 0x2BD98, symBinAddr: 0x1000312D8, symSize: 0x2DC }
  - { offset: 0x33961, size: 0x8, addend: 0x0, symName: __ZNSt3__18_IterOpsINS_17_ClassicAlgPolicyEE11__iter_moveB8ne180100IRNS_16reverse_iteratorIPlEELi0EEEDTclsr3stdE4movedeclsr3stdE7declvalIRT_EEEEOS8_, symObjAddr: 0x2C8D8, symBinAddr: 0x100031E18, symSize: 0x28 }
  - { offset: 0x33969, size: 0x8, addend: 0x0, symName: __ZNSt3__18_IterOpsINS_17_ClassicAlgPolicyEE25__validate_iter_referenceB8ne180100IRNS_16reverse_iteratorIPlEEEEvv, symObjAddr: 0x2C900, symBinAddr: 0x100031E40, symSize: 0x4 }
  - { offset: 0x339A6, size: 0x8, addend: 0x0, symName: __ZNSt3__18_IterOpsINS_17_ClassicAlgPolicyEE25__validate_iter_referenceB8ne180100IRNS_16reverse_iteratorIPlEEEEvv, symObjAddr: 0x2C900, symBinAddr: 0x100031E40, symSize: 0x4 }
  - { offset: 0x339AE, size: 0x8, addend: 0x0, symName: __ZNSt3__118__unwrap_iter_implINS_16reverse_iteratorIPlEELb0EE8__unwrapB8ne180100ES3_, symObjAddr: 0x2C904, symBinAddr: 0x100031E44, symSize: 0x264 }
  - { offset: 0x339D0, size: 0x8, addend: 0x0, symName: __ZNSt3__118__unwrap_iter_implINS_16reverse_iteratorIPlEELb0EE8__unwrapB8ne180100ES3_, symObjAddr: 0x2C904, symBinAddr: 0x100031E44, symSize: 0x264 }
  - { offset: 0x339D8, size: 0x8, addend: 0x0, symName: __ZNSt3__14pairINS_16reverse_iteratorIPlEES3_EC1B8ne180100ERKS3_S6_, symObjAddr: 0x2CB68, symBinAddr: 0x1000320A8, symSize: 0x3C }
  - { offset: 0x33A02, size: 0x8, addend: 0x0, symName: __ZNSt3__14pairINS_16reverse_iteratorIPlEES3_EC1B8ne180100ERKS3_S6_, symObjAddr: 0x2CB68, symBinAddr: 0x1000320A8, symSize: 0x3C }
  - { offset: 0x33A0A, size: 0x8, addend: 0x0, symName: __ZNSt3__14pairINS_16reverse_iteratorIPlEES3_EC2B8ne180100ERKS3_S6_, symObjAddr: 0x2CBA4, symBinAddr: 0x1000320E4, symSize: 0x54 }
  - { offset: 0x33A5B, size: 0x8, addend: 0x0, symName: __ZNSt3__14pairINS_16reverse_iteratorIPlEES3_EC2B8ne180100ERKS3_S6_, symObjAddr: 0x2CBA4, symBinAddr: 0x1000320E4, symSize: 0x54 }
  - { offset: 0x33A63, size: 0x8, addend: 0x0, symName: __ZNSt3__118__unwrap_iter_implINS_16reverse_iteratorIPlEELb0EE8__rewrapB8ne180100ES3_S3_, symObjAddr: 0x2CBF8, symBinAddr: 0x100032138, symSize: 0x2D0 }
  - { offset: 0x33AB4, size: 0x8, addend: 0x0, symName: __ZNSt3__118__unwrap_iter_implINS_16reverse_iteratorIPlEELb0EE8__rewrapB8ne180100ES3_S3_, symObjAddr: 0x2CBF8, symBinAddr: 0x100032138, symSize: 0x2D0 }
  - { offset: 0x33ABC, size: 0x8, addend: 0x0, symName: __ZNSt3__116reverse_iteratorIPlEC2B8ne180100ES1_, symObjAddr: 0x2CEC8, symBinAddr: 0x100032408, symSize: 0xB8 }
  - { offset: 0x33AF8, size: 0x8, addend: 0x0, symName: __ZNSt3__116reverse_iteratorIPlEC2B8ne180100ES1_, symObjAddr: 0x2CEC8, symBinAddr: 0x100032408, symSize: 0xB8 }
  - { offset: 0x33B00, size: 0x8, addend: 0x0, symName: __ZNSt3__114__split_bufferIlRNS_9allocatorIlEEED2Ev, symObjAddr: 0x2CF80, symBinAddr: 0x1000324C0, symSize: 0xEC }
  - { offset: 0x33B40, size: 0x8, addend: 0x0, symName: __ZNSt3__114__split_bufferIlRNS_9allocatorIlEEED2Ev, symObjAddr: 0x2CF80, symBinAddr: 0x1000324C0, symSize: 0xEC }
  - { offset: 0x33B48, size: 0x8, addend: 0x0, symName: __ZNSt3__114__split_bufferIlRNS_9allocatorIlEEE5clearB8ne180100Ev, symObjAddr: 0x2D06C, symBinAddr: 0x1000325AC, symSize: 0x68 }
  - { offset: 0x33B77, size: 0x8, addend: 0x0, symName: __ZNSt3__114__split_bufferIlRNS_9allocatorIlEEE5clearB8ne180100Ev, symObjAddr: 0x2D06C, symBinAddr: 0x1000325AC, symSize: 0x68 }
  - { offset: 0x33B7F, size: 0x8, addend: 0x0, symName: __ZNKSt3__114__split_bufferIlRNS_9allocatorIlEEE8capacityB8ne180100Ev, symObjAddr: 0x2D0D4, symBinAddr: 0x100032614, symSize: 0xBC }
  - { offset: 0x33BA8, size: 0x8, addend: 0x0, symName: __ZNKSt3__114__split_bufferIlRNS_9allocatorIlEEE8capacityB8ne180100Ev, symObjAddr: 0x2D0D4, symBinAddr: 0x100032614, symSize: 0xBC }
  - { offset: 0x33BB0, size: 0x8, addend: 0x0, symName: __ZNSt3__114__split_bufferIlRNS_9allocatorIlEEE17__destruct_at_endB8ne180100EPl, symObjAddr: 0x2D190, symBinAddr: 0x1000326D0, symSize: 0x2C }
  - { offset: 0x33BD9, size: 0x8, addend: 0x0, symName: __ZNSt3__114__split_bufferIlRNS_9allocatorIlEEE17__destruct_at_endB8ne180100EPl, symObjAddr: 0x2D190, symBinAddr: 0x1000326D0, symSize: 0x2C }
  - { offset: 0x33BE1, size: 0x8, addend: 0x0, symName: __ZNSt3__114__split_bufferIlRNS_9allocatorIlEEE17__destruct_at_endB8ne180100EPlNS_17integral_constantIbLb0EEE, symObjAddr: 0x2D1BC, symBinAddr: 0x1000326FC, symSize: 0x120 }
  - { offset: 0x33C1C, size: 0x8, addend: 0x0, symName: __ZNSt3__114__split_bufferIlRNS_9allocatorIlEEE17__destruct_at_endB8ne180100EPlNS_17integral_constantIbLb0EEE, symObjAddr: 0x2D1BC, symBinAddr: 0x1000326FC, symSize: 0x120 }
  - { offset: 0x33C24, size: 0x8, addend: 0x0, symName: __ZNKSt3__114__split_bufferIlRNS_9allocatorIlEEE9__end_capB8ne180100Ev, symObjAddr: 0x2D2DC, symBinAddr: 0x10003281C, symSize: 0x28 }
  - { offset: 0x33C6F, size: 0x8, addend: 0x0, symName: __ZNKSt3__114__split_bufferIlRNS_9allocatorIlEEE9__end_capB8ne180100Ev, symObjAddr: 0x2D2DC, symBinAddr: 0x10003281C, symSize: 0x28 }
  - { offset: 0x33C77, size: 0x8, addend: 0x0, symName: __ZNKSt3__117__compressed_pairIPlRNS_9allocatorIlEEE5firstB8ne180100Ev, symObjAddr: 0x2D304, symBinAddr: 0x100032844, symSize: 0x24 }
  - { offset: 0x33CA0, size: 0x8, addend: 0x0, symName: __ZNKSt3__117__compressed_pairIPlRNS_9allocatorIlEEE5firstB8ne180100Ev, symObjAddr: 0x2D304, symBinAddr: 0x100032844, symSize: 0x24 }
  - { offset: 0x33CA8, size: 0x8, addend: 0x0, symName: __ZNSt3__16vectorIiNS_9allocatorIiEEE11__make_iterB8ne180100EPi, symObjAddr: 0x2D328, symBinAddr: 0x100032868, symSize: 0x1F4 }
  - { offset: 0x33CD1, size: 0x8, addend: 0x0, symName: __ZNSt3__16vectorIiNS_9allocatorIiEEE11__make_iterB8ne180100EPi, symObjAddr: 0x2D328, symBinAddr: 0x100032868, symSize: 0x1F4 }
  - { offset: 0x33CD9, size: 0x8, addend: 0x0, symName: __ZNSt3__111__wrap_iterIPiEC1B8ne180100ES1_, symObjAddr: 0x2D51C, symBinAddr: 0x100032A5C, symSize: 0x34 }
  - { offset: 0x33D17, size: 0x8, addend: 0x0, symName: __ZNSt3__111__wrap_iterIPiEC1B8ne180100ES1_, symObjAddr: 0x2D51C, symBinAddr: 0x100032A5C, symSize: 0x34 }
  - { offset: 0x33D1F, size: 0x8, addend: 0x0, symName: __ZNSt3__111__wrap_iterIPiEC2B8ne180100ES1_, symObjAddr: 0x2D550, symBinAddr: 0x100032A90, symSize: 0x70 }
  - { offset: 0x33D5E, size: 0x8, addend: 0x0, symName: __ZNSt3__111__wrap_iterIPiEC2B8ne180100ES1_, symObjAddr: 0x2D550, symBinAddr: 0x100032A90, symSize: 0x70 }
  - { offset: 0x33D66, size: 0x8, addend: 0x0, symName: __ZNSt3__111__wrap_iterIPiEppB8ne180100Ev, symObjAddr: 0x2D5C0, symBinAddr: 0x100032B00, symSize: 0x68 }
  - { offset: 0x33DA5, size: 0x8, addend: 0x0, symName: __ZNSt3__111__wrap_iterIPiEppB8ne180100Ev, symObjAddr: 0x2D5C0, symBinAddr: 0x100032B00, symSize: 0x68 }
  - { offset: 0x33DAD, size: 0x8, addend: 0x0, symName: __ZNKSt3__111__wrap_iterIPiE4baseB8ne180100Ev, symObjAddr: 0x2D628, symBinAddr: 0x100032B68, symSize: 0x60 }
  - { offset: 0x33DD6, size: 0x8, addend: 0x0, symName: __ZNKSt3__111__wrap_iterIPiE4baseB8ne180100Ev, symObjAddr: 0x2D628, symBinAddr: 0x100032B68, symSize: 0x60 }
  - { offset: 0x33DDE, size: 0x8, addend: 0x0, symName: __ZNSt3__111__wrap_iterIPiEpLB8ne180100El, symObjAddr: 0x2D688, symBinAddr: 0x100032BC8, symSize: 0x78 }
  - { offset: 0x33E07, size: 0x8, addend: 0x0, symName: __ZNSt3__111__wrap_iterIPiEpLB8ne180100El, symObjAddr: 0x2D688, symBinAddr: 0x100032BC8, symSize: 0x78 }
  - { offset: 0x33E0F, size: 0x8, addend: 0x0, symName: __ZNSt3__110__distanceB8ne180100INS_11__wrap_iterIPiEEEENS_15iterator_traitsIT_E15difference_typeES5_S5_NS_26random_access_iterator_tagE, symObjAddr: 0x2D700, symBinAddr: 0x100032C40, symSize: 0x264 }
  - { offset: 0x33E4A, size: 0x8, addend: 0x0, symName: __ZNSt3__16vectorIiNS_9allocatorIiEEE18__insert_with_sizeB8ne180100INS_11__wrap_iterIPiEES7_EES7_NS5_IPKiEET_T0_l, symObjAddr: 0x2D9AC, symBinAddr: 0x100032EEC, symSize: 0xC50 }
  - { offset: 0x33E52, size: 0x8, addend: 0x0, symName: __ZNSt3__1miB8ne180100IPKiPiEENS_11__wrap_iterIT_E15difference_typeERKS6_RKNS4_IT0_EE, symObjAddr: 0x2E5FC, symBinAddr: 0x100033B3C, symSize: 0x48 }
  - { offset: 0x33FCC, size: 0x8, addend: 0x0, symName: __ZNSt3__16vectorIiNS_9allocatorIiEEE18__construct_at_endINS_11__wrap_iterIPiEES7_EEvT_T0_m, symObjAddr: 0x2E8F4, symBinAddr: 0x100033E34, symSize: 0x5BC }
  - { offset: 0x33FD4, size: 0x8, addend: 0x0, symName: __ZNSt3__16vectorIiNS_9allocatorIiEEE12__move_rangeEPiS4_S4_, symObjAddr: 0x2EEB0, symBinAddr: 0x1000343F0, symSize: 0x4B8 }
  - { offset: 0x34073, size: 0x8, addend: 0x0, symName: __ZNSt3__16vectorIiNS_9allocatorIiEEE12__move_rangeEPiS4_S4_, symObjAddr: 0x2EEB0, symBinAddr: 0x1000343F0, symSize: 0x4B8 }
  - { offset: 0x3407B, size: 0x8, addend: 0x0, symName: __ZNSt3__14copyB8ne180100INS_11__wrap_iterIPiEES2_EET0_T_S5_S4_, symObjAddr: 0x2F368, symBinAddr: 0x1000348A8, symSize: 0x3F0 }
  - { offset: 0x3416E, size: 0x8, addend: 0x0, symName: __ZNSt3__114__split_bufferIiRNS_9allocatorIiEEE28__construct_at_end_with_sizeINS_11__wrap_iterIPiEEEEvT_m, symObjAddr: 0x2F758, symBinAddr: 0x100034C98, symSize: 0x4E0 }
  - { offset: 0x34176, size: 0x8, addend: 0x0, symName: __ZNSt3__16vectorIiNS_9allocatorIiEEE26__swap_out_circular_bufferERNS_14__split_bufferIiRS2_EEPi, symObjAddr: 0x2FC38, symBinAddr: 0x100035178, symSize: 0x670 }
  - { offset: 0x341EF, size: 0x8, addend: 0x0, symName: __ZNSt3__118__unwrap_iter_implINS_11__wrap_iterIPiEELb1EE8__unwrapB8ne180100ES3_, symObjAddr: 0x30E94, symBinAddr: 0x1000363D4, symSize: 0x1E8 }
  - { offset: 0x341F7, size: 0x8, addend: 0x0, symName: __ZNSt3__112__to_addressB8ne180100INS_11__wrap_iterIPiEEvEEu7__decayIDTclsr19__to_address_helperIT_EE6__callclsr3stdE7declvalIRKS4_EEEEES6_, symObjAddr: 0x3107C, symBinAddr: 0x1000365BC, symSize: 0x24 }
  - { offset: 0x3422A, size: 0x8, addend: 0x0, symName: __ZNSt3__119__to_address_helperINS_11__wrap_iterIPiEEvE6__callB8ne180100ERKS3_, symObjAddr: 0x310A0, symBinAddr: 0x1000365E0, symSize: 0x1F8 }
  - { offset: 0x34232, size: 0x8, addend: 0x0, symName: __ZNSt3__114pointer_traitsINS_11__wrap_iterIPiEEE10to_addressB8ne180100ES3_, symObjAddr: 0x31298, symBinAddr: 0x1000367D8, symSize: 0x1EC }
  - { offset: 0x34259, size: 0x8, addend: 0x0, symName: __ZNSt3__114pointer_traitsINS_11__wrap_iterIPiEEE10to_addressB8ne180100ES3_, symObjAddr: 0x31298, symBinAddr: 0x1000367D8, symSize: 0x1EC }
  - { offset: 0x34261, size: 0x8, addend: 0x0, symName: __ZNSt3__113move_backwardB8ne180100IPiS1_EET0_T_S3_S2_, symObjAddr: 0x31484, symBinAddr: 0x1000369C4, symSize: 0x24C }
  - { offset: 0x3429D, size: 0x8, addend: 0x0, symName: __ZNKSt3__123__move_backward_trivialclB8ne180100IiiLi0EEENS_4pairIPT_PT0_EES4_S4_S6_, symObjAddr: 0x320B4, symBinAddr: 0x1000375F4, symSize: 0x228 }
  - { offset: 0x342A5, size: 0x8, addend: 0x0, symName: __ZNSt3__128__copy_backward_trivial_implB8ne180100IiiEENS_4pairIPT_PT0_EES3_S3_S5_, symObjAddr: 0x322DC, symBinAddr: 0x10003781C, symSize: 0x3CC }
  - { offset: 0x34359, size: 0x8, addend: 0x0, symName: __ZNSt3__14pairINS_11__wrap_iterIPiEES2_EC1B8ne180100ERKS3_RKS2_, symObjAddr: 0x33CE4, symBinAddr: 0x100039224, symSize: 0x3C }
  - { offset: 0x34361, size: 0x8, addend: 0x0, symName: __ZNSt3__14pairINS_11__wrap_iterIPiEES2_EC2B8ne180100ERKS3_RKS2_, symObjAddr: 0x33D20, symBinAddr: 0x100039260, symSize: 0xC8 }
  - { offset: 0x343B2, size: 0x8, addend: 0x0, symName: __ZNSt3__14pairINS_11__wrap_iterIPiEES2_EC2B8ne180100ERKS3_RKS2_, symObjAddr: 0x33D20, symBinAddr: 0x100039260, symSize: 0xC8 }
  - { offset: 0x343BA, size: 0x8, addend: 0x0, symName: __ZNSt3__113__rewrap_iterB8ne180100INS_11__wrap_iterIPiEES2_NS_18__unwrap_iter_implIS3_Lb1EEEEET_S6_T0_, symObjAddr: 0x33DE8, symBinAddr: 0x100039328, symSize: 0x3A4 }
  - { offset: 0x3440B, size: 0x8, addend: 0x0, symName: __ZNSt3__118__unwrap_iter_implINS_11__wrap_iterIPiEELb1EE8__rewrapB8ne180100ES3_S2_, symObjAddr: 0x3418C, symBinAddr: 0x1000396CC, symSize: 0x2C4 }
  - { offset: 0x34413, size: 0x8, addend: 0x0, symName: __ZNSt3__114__split_bufferIiRNS_9allocatorIiEEE21_ConstructTransactionC1B8ne180100EPPim, symObjAddr: 0x34450, symBinAddr: 0x100039990, symSize: 0x3C }
  - { offset: 0x34462, size: 0x8, addend: 0x0, symName: __ZNSt3__114__split_bufferIiRNS_9allocatorIiEEE21_ConstructTransactionC1B8ne180100EPPim, symObjAddr: 0x34450, symBinAddr: 0x100039990, symSize: 0x3C }
  - { offset: 0x3446A, size: 0x8, addend: 0x0, symName: __ZNSt3__114__split_bufferIiRNS_9allocatorIiEEE21_ConstructTransactionD1B8ne180100Ev, symObjAddr: 0x3448C, symBinAddr: 0x1000399CC, symSize: 0x2C }
  - { offset: 0x344BB, size: 0x8, addend: 0x0, symName: __ZNSt3__114__split_bufferIiRNS_9allocatorIiEEE21_ConstructTransactionD1B8ne180100Ev, symObjAddr: 0x3448C, symBinAddr: 0x1000399CC, symSize: 0x2C }
  - { offset: 0x344C3, size: 0x8, addend: 0x0, symName: __ZNSt3__114__split_bufferIiRNS_9allocatorIiEEE21_ConstructTransactionC2B8ne180100EPPim, symObjAddr: 0x344B8, symBinAddr: 0x1000399F8, symSize: 0x184 }
  - { offset: 0x344F0, size: 0x8, addend: 0x0, symName: __ZNSt3__114__split_bufferIiRNS_9allocatorIiEEE21_ConstructTransactionC2B8ne180100EPPim, symObjAddr: 0x344B8, symBinAddr: 0x1000399F8, symSize: 0x184 }
  - { offset: 0x344F8, size: 0x8, addend: 0x0, symName: __ZNSt3__114__split_bufferIiRNS_9allocatorIiEEE21_ConstructTransactionD2B8ne180100Ev, symObjAddr: 0x3463C, symBinAddr: 0x100039B7C, symSize: 0xE0 }
  - { offset: 0x34549, size: 0x8, addend: 0x0, symName: __ZNSt3__114__split_bufferIiRNS_9allocatorIiEEE21_ConstructTransactionD2B8ne180100Ev, symObjAddr: 0x3463C, symBinAddr: 0x100039B7C, symSize: 0xE0 }
  - { offset: 0x34551, size: 0x8, addend: 0x0, symName: __ZNSt3__142__uninitialized_allocator_move_if_noexceptB8ne180100INS_9allocatorIiEEPiS3_ivEET1_RT_T0_S7_S4_, symObjAddr: 0x3471C, symBinAddr: 0x100039C5C, symSize: 0xA4 }
  - { offset: 0x34590, size: 0x8, addend: 0x0, symName: __ZNKSt3__114__move_trivialclB8ne180100IiiLi0EEENS_4pairIPT_PT0_EES4_S4_S6_, symObjAddr: 0x353F0, symBinAddr: 0x10003A930, symSize: 0x228 }
  - { offset: 0x34598, size: 0x8, addend: 0x0, symName: __ZNSt3__111__wrap_iterIPKiEC2B8ne180100IPiLi0EEERKNS0_IT_EE, symObjAddr: 0x35618, symBinAddr: 0x10003AB58, symSize: 0x80 }
  - { offset: 0x3461F, size: 0x8, addend: 0x0, symName: __ZNSt3__111__wrap_iterIPKiEC2B8ne180100IPiLi0EEERKNS0_IT_EE, symObjAddr: 0x35618, symBinAddr: 0x10003AB58, symSize: 0x80 }
  - { offset: 0x34627, size: 0x8, addend: 0x0, symName: __ZNKSt3__111__wrap_iterIPlEplB8ne180100El, symObjAddr: 0x35698, symBinAddr: 0x10003ABD8, symSize: 0x204 }
  - { offset: 0x3467D, size: 0x8, addend: 0x0, symName: __ZNKSt3__111__wrap_iterIPlEplB8ne180100El, symObjAddr: 0x35698, symBinAddr: 0x10003ABD8, symSize: 0x204 }
  - { offset: 0x34685, size: 0x8, addend: 0x0, symName: __ZNSt3__111__wrap_iterIPlEpLB8ne180100El, symObjAddr: 0x3589C, symBinAddr: 0x10003ADDC, symSize: 0x78 }
  - { offset: 0x346D8, size: 0x8, addend: 0x0, symName: __ZNSt3__111__wrap_iterIPlEpLB8ne180100El, symObjAddr: 0x3589C, symBinAddr: 0x10003ADDC, symSize: 0x78 }
  - { offset: 0x346E0, size: 0x8, addend: 0x0, symName: __ZNSt3__1miB8ne180100IPKiS2_EENS_11__wrap_iterIT_E15difference_typeERKS5_RKNS3_IT0_EE, symObjAddr: 0x35914, symBinAddr: 0x10003AE54, symSize: 0x48 }
  - { offset: 0x3471B, size: 0x8, addend: 0x0, symName: __ZNSt3__111__wrap_iterIPlEppB8ne180100Ev, symObjAddr: 0x3595C, symBinAddr: 0x10003AE9C, symSize: 0x68 }
  - { offset: 0x34723, size: 0x8, addend: 0x0, symName: __ZNSt3__16vectorIlNS_9allocatorIlEEE11__make_iterB8ne180100EPl, symObjAddr: 0x359C4, symBinAddr: 0x10003AF04, symSize: 0x1F4 }
  - { offset: 0x3474C, size: 0x8, addend: 0x0, symName: __ZNSt3__16vectorIlNS_9allocatorIlEEE11__make_iterB8ne180100EPl, symObjAddr: 0x359C4, symBinAddr: 0x10003AF04, symSize: 0x1F4 }
  - { offset: 0x34754, size: 0x8, addend: 0x0, symName: __ZNSt3__111__wrap_iterIPlEC1B8ne180100ES1_, symObjAddr: 0x35BB8, symBinAddr: 0x10003B0F8, symSize: 0x34 }
  - { offset: 0x34792, size: 0x8, addend: 0x0, symName: __ZNSt3__111__wrap_iterIPlEC1B8ne180100ES1_, symObjAddr: 0x35BB8, symBinAddr: 0x10003B0F8, symSize: 0x34 }
  - { offset: 0x3479A, size: 0x8, addend: 0x0, symName: __ZNSt3__111__wrap_iterIPlEC2B8ne180100ES1_, symObjAddr: 0x35BEC, symBinAddr: 0x10003B12C, symSize: 0x70 }
  - { offset: 0x347D9, size: 0x8, addend: 0x0, symName: __ZNSt3__111__wrap_iterIPlEC2B8ne180100ES1_, symObjAddr: 0x35BEC, symBinAddr: 0x10003B12C, symSize: 0x70 }
  - { offset: 0x347E1, size: 0x8, addend: 0x0, symName: __ZNSt3__113__rewrap_iterB8ne180100INS_11__wrap_iterIPlEES2_NS_18__unwrap_iter_implIS3_Lb1EEEEET_S6_T0_, symObjAddr: 0x35C5C, symBinAddr: 0x10003B19C, symSize: 0x3A4 }
  - { offset: 0x34820, size: 0x8, addend: 0x0, symName: __ZNSt3__118__unwrap_iter_implINS_11__wrap_iterIPlEELb1EE8__rewrapB8ne180100ES3_S2_, symObjAddr: 0x36614, symBinAddr: 0x10003BB54, symSize: 0x2C4 }
  - { offset: 0x34828, size: 0x8, addend: 0x0, symName: __ZNSt3__112__to_addressB8ne180100INS_11__wrap_iterIPlEEvEEu7__decayIDTclsr19__to_address_helperIT_EE6__callclsr3stdE7declvalIRKS4_EEEEES6_, symObjAddr: 0x368D8, symBinAddr: 0x10003BE18, symSize: 0x24 }
  - { offset: 0x34877, size: 0x8, addend: 0x0, symName: __ZNSt3__119__to_address_helperINS_11__wrap_iterIPlEEvE6__callB8ne180100ERKS3_, symObjAddr: 0x368FC, symBinAddr: 0x10003BE3C, symSize: 0x1F8 }
  - { offset: 0x3487F, size: 0x8, addend: 0x0, symName: __ZNSt3__114pointer_traitsINS_11__wrap_iterIPlEEE10to_addressB8ne180100ES3_, symObjAddr: 0x36AF4, symBinAddr: 0x10003C034, symSize: 0x1EC }
  - { offset: 0x348A6, size: 0x8, addend: 0x0, symName: __ZNSt3__114pointer_traitsINS_11__wrap_iterIPlEEE10to_addressB8ne180100ES3_, symObjAddr: 0x36AF4, symBinAddr: 0x10003C034, symSize: 0x1EC }
  - { offset: 0x348AE, size: 0x8, addend: 0x0, symName: __ZNKSt3__111__wrap_iterIPlE4baseB8ne180100Ev, symObjAddr: 0x36CE0, symBinAddr: 0x10003C220, symSize: 0x60 }
  - { offset: 0x348D8, size: 0x8, addend: 0x0, symName: __ZNKSt3__111__wrap_iterIPlE4baseB8ne180100Ev, symObjAddr: 0x36CE0, symBinAddr: 0x10003C220, symSize: 0x60 }
  - { offset: 0x348E0, size: 0x8, addend: 0x0, symName: __ZNSt3__114numeric_limitsIlE3minB8ne180100Ev, symObjAddr: 0x36D40, symBinAddr: 0x10003C280, symSize: 0x14 }
  - { offset: 0x34909, size: 0x8, addend: 0x0, symName: __ZNSt3__114numeric_limitsIlE3minB8ne180100Ev, symObjAddr: 0x36D40, symBinAddr: 0x10003C280, symSize: 0x14 }
  - { offset: 0x34911, size: 0x8, addend: 0x0, symName: __ZNSt3__111__find_implB8ne180100IPlS1_lNS_10__identityEEET_S3_T0_RKT1_RT2_, symObjAddr: 0x36D54, symBinAddr: 0x10003C294, symSize: 0x108 }
  - { offset: 0x34924, size: 0x8, addend: 0x0, symName: __ZNSt3__123__libcpp_numeric_limitsIlLb1EE3minB8ne180100Ev, symObjAddr: 0x36E5C, symBinAddr: 0x10003C39C, symSize: 0x8 }
  - { offset: 0x3492C, size: 0x8, addend: 0x0, symName: __ZNSt3__18__invokeB8ne180100IRNS_10__identityEJRlEEEDTclclsr3stdE7declvalIT_EEspclsr3stdE7declvalIT0_EEEEOS4_DpOS5_, symObjAddr: 0x36E64, symBinAddr: 0x10003C3A4, symSize: 0x2C }
  - { offset: 0x34952, size: 0x8, addend: 0x0, symName: __ZNKSt3__110__identityclB8ne180100IRlEEOT_S4_, symObjAddr: 0x36E90, symBinAddr: 0x10003C3D0, symSize: 0x18 }
  - { offset: 0x3495A, size: 0x8, addend: 0x0, symName: __ZNSt3__118__unwrap_iter_implINS_11__wrap_iterIPlEELb1EE8__unwrapB8ne180100ES3_, symObjAddr: 0x36EA8, symBinAddr: 0x10003C3E8, symSize: 0x1E8 }
  - { offset: 0x349A3, size: 0x8, addend: 0x0, symName: __ZNSt3__118__unwrap_iter_implINS_11__wrap_iterIPlEELb1EE8__unwrapB8ne180100ES3_, symObjAddr: 0x36EA8, symBinAddr: 0x10003C3E8, symSize: 0x1E8 }
  - { offset: 0x349AB, size: 0x8, addend: 0x0, symName: __ZNSt3__16vectorIiNS_9allocatorIiEEE22__construct_one_at_endB8ne180100IJRKiEEEvDpOT_, symObjAddr: 0x37090, symBinAddr: 0x10003C5D0, symSize: 0x3CC }
  - { offset: 0x349D5, size: 0x8, addend: 0x0, symName: __ZNSt3__16vectorIiNS_9allocatorIiEEE22__construct_one_at_endB8ne180100IJRKiEEEvDpOT_, symObjAddr: 0x37090, symBinAddr: 0x10003C5D0, symSize: 0x3CC }
  - { offset: 0x349DD, size: 0x8, addend: 0x0, symName: __ZNSt3__16vectorIiNS_9allocatorIiEEE21__push_back_slow_pathIRKiEEPiOT_, symObjAddr: 0x3745C, symBinAddr: 0x10003C99C, symSize: 0x468 }
  - { offset: 0x34A41, size: 0x8, addend: 0x0, symName: __ZNSt3__16vectorIiNS_9allocatorIiEEE21__push_back_slow_pathIRKiEEPiOT_, symObjAddr: 0x3745C, symBinAddr: 0x10003C99C, symSize: 0x468 }
  - { offset: 0x34A49, size: 0x8, addend: 0x0, symName: __ZNSt3__116allocator_traitsINS_9allocatorIiEEE9constructB8ne180100IiJRKiEvEEvRS2_PT_DpOT0_, symObjAddr: 0x378C4, symBinAddr: 0x10003CE04, symSize: 0x34 }
  - { offset: 0x34AC1, size: 0x8, addend: 0x0, symName: __ZNSt3__116allocator_traitsINS_9allocatorIiEEE9constructB8ne180100IiJRKiEvEEvRS2_PT_DpOT0_, symObjAddr: 0x378C4, symBinAddr: 0x10003CE04, symSize: 0x34 }
  - { offset: 0x34AC9, size: 0x8, addend: 0x0, symName: __ZNSt3__19allocatorIiE9constructB8ne180100IiJRKiEEEvPT_DpOT0_, symObjAddr: 0x378F8, symBinAddr: 0x10003CE38, symSize: 0x104 }
  - { offset: 0x34B33, size: 0x8, addend: 0x0, symName: __ZNSt3__19allocatorIiE9constructB8ne180100IiJRKiEEEvPT_DpOT0_, symObjAddr: 0x378F8, symBinAddr: 0x10003CE38, symSize: 0x104 }
  - { offset: 0x34B3B, size: 0x8, addend: 0x0, symName: __ZNSt3__15dequeIiNS_9allocatorIiEEEC2B8ne180100Ev, symObjAddr: 0x379FC, symBinAddr: 0x10003CF3C, symSize: 0x3BC }
  - { offset: 0x34BA4, size: 0x8, addend: 0x0, symName: __ZNSt3__15dequeIiNS_9allocatorIiEEEC2B8ne180100Ev, symObjAddr: 0x379FC, symBinAddr: 0x10003CF3C, symSize: 0x3BC }
  - { offset: 0x34BAC, size: 0x8, addend: 0x0, symName: __ZNSt3__114__split_bufferIPiNS_9allocatorIS1_EEEC1B8ne180100Ev, symObjAddr: 0x37DB8, symBinAddr: 0x10003D2F8, symSize: 0x2C }
  - { offset: 0x34BDA, size: 0x8, addend: 0x0, symName: __ZNSt3__114__split_bufferIPiNS_9allocatorIS1_EEEC1B8ne180100Ev, symObjAddr: 0x37DB8, symBinAddr: 0x10003D2F8, symSize: 0x2C }
  - { offset: 0x34BE2, size: 0x8, addend: 0x0, symName: __ZNSt3__117__compressed_pairImNS_9allocatorIiEEEC1B8ne180100IiNS_18__default_init_tagEEEOT_OT0_, symObjAddr: 0x37DE4, symBinAddr: 0x10003D324, symSize: 0x3C }
  - { offset: 0x34C0F, size: 0x8, addend: 0x0, symName: __ZNSt3__117__compressed_pairImNS_9allocatorIiEEEC1B8ne180100IiNS_18__default_init_tagEEEOT_OT0_, symObjAddr: 0x37DE4, symBinAddr: 0x10003D324, symSize: 0x3C }
  - { offset: 0x34C17, size: 0x8, addend: 0x0, symName: __ZNKSt3__15dequeIiNS_9allocatorIiEEE14__annotate_newB8ne180100Em, symObjAddr: 0x37E20, symBinAddr: 0x10003D360, symSize: 0x160 }
  - { offset: 0x34C82, size: 0x8, addend: 0x0, symName: __ZNKSt3__15dequeIiNS_9allocatorIiEEE14__annotate_newB8ne180100Em, symObjAddr: 0x37E20, symBinAddr: 0x10003D360, symSize: 0x160 }
  - { offset: 0x34C8A, size: 0x8, addend: 0x0, symName: __ZNSt3__114__split_bufferIPiNS_9allocatorIS1_EEED1Ev, symObjAddr: 0x37F80, symBinAddr: 0x10003D4C0, symSize: 0x2C }
  - { offset: 0x34CC7, size: 0x8, addend: 0x0, symName: __ZNSt3__114__split_bufferIPiNS_9allocatorIS1_EEED1Ev, symObjAddr: 0x37F80, symBinAddr: 0x10003D4C0, symSize: 0x2C }
  - { offset: 0x34CCF, size: 0x8, addend: 0x0, symName: __ZNSt3__114__split_bufferIPiNS_9allocatorIS1_EEEC2B8ne180100Ev, symObjAddr: 0x37FAC, symBinAddr: 0x10003D4EC, symSize: 0x2FC }
  - { offset: 0x34CFE, size: 0x8, addend: 0x0, symName: __ZNSt3__114__split_bufferIPiNS_9allocatorIS1_EEEC2B8ne180100Ev, symObjAddr: 0x37FAC, symBinAddr: 0x10003D4EC, symSize: 0x2FC }
  - { offset: 0x34D06, size: 0x8, addend: 0x0, symName: __ZNSt3__117__compressed_pairIPPiNS_9allocatorIS1_EEEC1B8ne180100IDnNS_18__default_init_tagEEEOT_OT0_, symObjAddr: 0x382A8, symBinAddr: 0x10003D7E8, symSize: 0x3C }
  - { offset: 0x34D34, size: 0x8, addend: 0x0, symName: __ZNSt3__117__compressed_pairIPPiNS_9allocatorIS1_EEEC1B8ne180100IDnNS_18__default_init_tagEEEOT_OT0_, symObjAddr: 0x382A8, symBinAddr: 0x10003D7E8, symSize: 0x3C }
  - { offset: 0x34D3C, size: 0x8, addend: 0x0, symName: __ZNSt3__117__compressed_pairIPPiNS_9allocatorIS1_EEEC2B8ne180100IDnNS_18__default_init_tagEEEOT_OT0_, symObjAddr: 0x382E4, symBinAddr: 0x10003D824, symSize: 0x40 }
  - { offset: 0x34DA7, size: 0x8, addend: 0x0, symName: __ZNSt3__117__compressed_pairIPPiNS_9allocatorIS1_EEEC2B8ne180100IDnNS_18__default_init_tagEEEOT_OT0_, symObjAddr: 0x382E4, symBinAddr: 0x10003D824, symSize: 0x40 }
  - { offset: 0x34DAF, size: 0x8, addend: 0x0, symName: __ZNSt3__122__compressed_pair_elemIPPiLi0ELb0EEC2B8ne180100IDnvEEOT_, symObjAddr: 0x38324, symBinAddr: 0x10003D864, symSize: 0x64 }
  - { offset: 0x34E1A, size: 0x8, addend: 0x0, symName: __ZNSt3__122__compressed_pair_elemIPPiLi0ELb0EEC2B8ne180100IDnvEEOT_, symObjAddr: 0x38324, symBinAddr: 0x10003D864, symSize: 0x64 }
  - { offset: 0x34E22, size: 0x8, addend: 0x0, symName: __ZNSt3__122__compressed_pair_elemINS_9allocatorIPiEELi1ELb1EEC2B8ne180100ENS_18__default_init_tagE, symObjAddr: 0x38388, symBinAddr: 0x10003D8C8, symSize: 0x2C }
  - { offset: 0x34E6F, size: 0x8, addend: 0x0, symName: __ZNSt3__122__compressed_pair_elemINS_9allocatorIPiEELi1ELb1EEC2B8ne180100ENS_18__default_init_tagE, symObjAddr: 0x38388, symBinAddr: 0x10003D8C8, symSize: 0x2C }
  - { offset: 0x34E77, size: 0x8, addend: 0x0, symName: __ZNSt3__19allocatorIPiEC2B8ne180100Ev, symObjAddr: 0x383B4, symBinAddr: 0x10003D8F4, symSize: 0x2C }
  - { offset: 0x34EB2, size: 0x8, addend: 0x0, symName: __ZNSt3__19allocatorIPiEC2B8ne180100Ev, symObjAddr: 0x383B4, symBinAddr: 0x10003D8F4, symSize: 0x2C }
  - { offset: 0x34EBA, size: 0x8, addend: 0x0, symName: __ZNSt3__116__non_trivial_ifILb1ENS_9allocatorIPiEEEC2B8ne180100Ev, symObjAddr: 0x383E0, symBinAddr: 0x10003D920, symSize: 0x14 }
  - { offset: 0x34EE7, size: 0x8, addend: 0x0, symName: __ZNSt3__116__non_trivial_ifILb1ENS_9allocatorIPiEEEC2B8ne180100Ev, symObjAddr: 0x383E0, symBinAddr: 0x10003D920, symSize: 0x14 }
  - { offset: 0x34EEF, size: 0x8, addend: 0x0, symName: __ZNSt3__117__compressed_pairImNS_9allocatorIiEEEC2B8ne180100IiNS_18__default_init_tagEEEOT_OT0_, symObjAddr: 0x383F4, symBinAddr: 0x10003D934, symSize: 0x40 }
  - { offset: 0x34F1D, size: 0x8, addend: 0x0, symName: __ZNSt3__117__compressed_pairImNS_9allocatorIiEEEC2B8ne180100IiNS_18__default_init_tagEEEOT_OT0_, symObjAddr: 0x383F4, symBinAddr: 0x10003D934, symSize: 0x40 }
  - { offset: 0x34F25, size: 0x8, addend: 0x0, symName: __ZNSt3__122__compressed_pair_elemImLi0ELb0EEC2B8ne180100IivEEOT_, symObjAddr: 0x38434, symBinAddr: 0x10003D974, symSize: 0xD8 }
  - { offset: 0x34F90, size: 0x8, addend: 0x0, symName: __ZNSt3__122__compressed_pair_elemImLi0ELb0EEC2B8ne180100IivEEOT_, symObjAddr: 0x38434, symBinAddr: 0x10003D974, symSize: 0xD8 }
  - { offset: 0x34F98, size: 0x8, addend: 0x0, symName: __ZNKSt3__15dequeIiNS_9allocatorIiEEE18__annotate_from_toB8ne180100EmmNS3_22__asan_annotation_typeENS3_23__asan_annotation_placeE, symObjAddr: 0x3850C, symBinAddr: 0x10003DA4C, symSize: 0x78C }
  - { offset: 0x34FE5, size: 0x8, addend: 0x0, symName: __ZNKSt3__15dequeIiNS_9allocatorIiEEE18__annotate_from_toB8ne180100EmmNS3_22__asan_annotation_typeENS3_23__asan_annotation_placeE, symObjAddr: 0x3850C, symBinAddr: 0x10003DA4C, symSize: 0x78C }
  - { offset: 0x34FED, size: 0x8, addend: 0x0, symName: __ZNKSt3__114__split_bufferIPiNS_9allocatorIS1_EEE4sizeB8ne180100Ev, symObjAddr: 0x38C98, symBinAddr: 0x10003E1D8, symSize: 0xB4 }
  - { offset: 0x35208, size: 0x8, addend: 0x0, symName: __ZNKSt3__114__split_bufferIPiNS_9allocatorIS1_EEE4sizeB8ne180100Ev, symObjAddr: 0x38C98, symBinAddr: 0x10003E1D8, symSize: 0xB4 }
  - { offset: 0x35210, size: 0x8, addend: 0x0, symName: __ZNKSt3__114__split_bufferIPiNS_9allocatorIS1_EEE5beginB8ne180100Ev, symObjAddr: 0x38D4C, symBinAddr: 0x10003E28C, symSize: 0x64 }
  - { offset: 0x35239, size: 0x8, addend: 0x0, symName: __ZNKSt3__114__split_bufferIPiNS_9allocatorIS1_EEE5beginB8ne180100Ev, symObjAddr: 0x38D4C, symBinAddr: 0x10003E28C, symSize: 0x64 }
  - { offset: 0x35241, size: 0x8, addend: 0x0, symName: __ZNKSt3__15dequeIiNS_9allocatorIiEEE5emptyB8ne180100Ev, symObjAddr: 0x38DB0, symBinAddr: 0x10003E2F0, symSize: 0x30 }
  - { offset: 0x3526A, size: 0x8, addend: 0x0, symName: __ZNKSt3__15dequeIiNS_9allocatorIiEEE5emptyB8ne180100Ev, symObjAddr: 0x38DB0, symBinAddr: 0x10003E2F0, symSize: 0x30 }
  - { offset: 0x35272, size: 0x8, addend: 0x0, symName: __ZNKSt3__15dequeIiNS_9allocatorIiEEE44__annotate_double_ended_contiguous_containerB8ne180100EPKvS5_S5_S5_S5_S5_, symObjAddr: 0x38DE0, symBinAddr: 0x10003E320, symSize: 0x68 }
  - { offset: 0x3529B, size: 0x8, addend: 0x0, symName: __ZNKSt3__15dequeIiNS_9allocatorIiEEE44__annotate_double_ended_contiguous_containerB8ne180100EPKvS5_S5_S5_S5_S5_, symObjAddr: 0x38DE0, symBinAddr: 0x10003E320, symSize: 0x68 }
  - { offset: 0x352A3, size: 0x8, addend: 0x0, symName: __ZNSt3__114__split_bufferIPiNS_9allocatorIS1_EEED2Ev, symObjAddr: 0x38E48, symBinAddr: 0x10003E388, symSize: 0xEC }
  - { offset: 0x3533F, size: 0x8, addend: 0x0, symName: __ZNSt3__114__split_bufferIPiNS_9allocatorIS1_EEED2Ev, symObjAddr: 0x38E48, symBinAddr: 0x10003E388, symSize: 0xEC }
  - { offset: 0x35347, size: 0x8, addend: 0x0, symName: __ZNSt3__114__split_bufferIPiNS_9allocatorIS1_EEE5clearB8ne180100Ev, symObjAddr: 0x38F34, symBinAddr: 0x10003E474, symSize: 0x68 }
  - { offset: 0x35376, size: 0x8, addend: 0x0, symName: __ZNSt3__114__split_bufferIPiNS_9allocatorIS1_EEE5clearB8ne180100Ev, symObjAddr: 0x38F34, symBinAddr: 0x10003E474, symSize: 0x68 }
  - { offset: 0x3537E, size: 0x8, addend: 0x0, symName: __ZNSt3__116allocator_traitsINS_9allocatorIPiEEE10deallocateB8ne180100ERS3_PS2_m, symObjAddr: 0x38F9C, symBinAddr: 0x10003E4DC, symSize: 0x34 }
  - { offset: 0x353A7, size: 0x8, addend: 0x0, symName: __ZNSt3__116allocator_traitsINS_9allocatorIPiEEE10deallocateB8ne180100ERS3_PS2_m, symObjAddr: 0x38F9C, symBinAddr: 0x10003E4DC, symSize: 0x34 }
  - { offset: 0x353AF, size: 0x8, addend: 0x0, symName: __ZNSt3__114__split_bufferIPiNS_9allocatorIS1_EEE7__allocB8ne180100Ev, symObjAddr: 0x38FD0, symBinAddr: 0x10003E510, symSize: 0x28 }
  - { offset: 0x353FC, size: 0x8, addend: 0x0, symName: __ZNSt3__114__split_bufferIPiNS_9allocatorIS1_EEE7__allocB8ne180100Ev, symObjAddr: 0x38FD0, symBinAddr: 0x10003E510, symSize: 0x28 }
  - { offset: 0x35404, size: 0x8, addend: 0x0, symName: __ZNKSt3__114__split_bufferIPiNS_9allocatorIS1_EEE8capacityB8ne180100Ev, symObjAddr: 0x38FF8, symBinAddr: 0x10003E538, symSize: 0xBC }
  - { offset: 0x3542D, size: 0x8, addend: 0x0, symName: __ZNKSt3__114__split_bufferIPiNS_9allocatorIS1_EEE8capacityB8ne180100Ev, symObjAddr: 0x38FF8, symBinAddr: 0x10003E538, symSize: 0xBC }
  - { offset: 0x35435, size: 0x8, addend: 0x0, symName: __ZNSt3__114__split_bufferIPiNS_9allocatorIS1_EEE17__destruct_at_endB8ne180100EPS1_, symObjAddr: 0x390B4, symBinAddr: 0x10003E5F4, symSize: 0x2C }
  - { offset: 0x3545E, size: 0x8, addend: 0x0, symName: __ZNSt3__114__split_bufferIPiNS_9allocatorIS1_EEE17__destruct_at_endB8ne180100EPS1_, symObjAddr: 0x390B4, symBinAddr: 0x10003E5F4, symSize: 0x2C }
  - { offset: 0x35466, size: 0x8, addend: 0x0, symName: __ZNSt3__114__split_bufferIPiNS_9allocatorIS1_EEE17__destruct_at_endB8ne180100EPS1_NS_17integral_constantIbLb0EEE, symObjAddr: 0x390E0, symBinAddr: 0x10003E620, symSize: 0x120 }
  - { offset: 0x354A1, size: 0x8, addend: 0x0, symName: __ZNSt3__114__split_bufferIPiNS_9allocatorIS1_EEE17__destruct_at_endB8ne180100EPS1_NS_17integral_constantIbLb0EEE, symObjAddr: 0x390E0, symBinAddr: 0x10003E620, symSize: 0x120 }
  - { offset: 0x354A9, size: 0x8, addend: 0x0, symName: __ZNSt3__116allocator_traitsINS_9allocatorIPiEEE7destroyB8ne180100IS2_vEEvRS3_PT_, symObjAddr: 0x39200, symBinAddr: 0x10003E740, symSize: 0x2C }
  - { offset: 0x354F4, size: 0x8, addend: 0x0, symName: __ZNSt3__116allocator_traitsINS_9allocatorIPiEEE7destroyB8ne180100IS2_vEEvRS3_PT_, symObjAddr: 0x39200, symBinAddr: 0x10003E740, symSize: 0x2C }
  - { offset: 0x354FC, size: 0x8, addend: 0x0, symName: __ZNSt3__112__to_addressB8ne180100IPiEEPT_S3_, symObjAddr: 0x3922C, symBinAddr: 0x10003E76C, symSize: 0x14 }
  - { offset: 0x35544, size: 0x8, addend: 0x0, symName: __ZNSt3__19allocatorIPiE7destroyB8ne180100EPS1_, symObjAddr: 0x39240, symBinAddr: 0x10003E780, symSize: 0x14 }
  - { offset: 0x3554C, size: 0x8, addend: 0x0, symName: __ZNSt3__19allocatorIPiE10deallocateB8ne180100EPS1_m, symObjAddr: 0x39254, symBinAddr: 0x10003E794, symSize: 0x7C }
  - { offset: 0x35588, size: 0x8, addend: 0x0, symName: __ZNSt3__19allocatorIPiE10deallocateB8ne180100EPS1_m, symObjAddr: 0x39254, symBinAddr: 0x10003E794, symSize: 0x7C }
  - { offset: 0x35590, size: 0x8, addend: 0x0, symName: __ZNSt3__117__compressed_pairIPPiNS_9allocatorIS1_EEE6secondB8ne180100Ev, symObjAddr: 0x392D0, symBinAddr: 0x10003E810, symSize: 0x24 }
  - { offset: 0x355DD, size: 0x8, addend: 0x0, symName: __ZNSt3__117__compressed_pairIPPiNS_9allocatorIS1_EEE6secondB8ne180100Ev, symObjAddr: 0x392D0, symBinAddr: 0x10003E810, symSize: 0x24 }
  - { offset: 0x355E5, size: 0x8, addend: 0x0, symName: __ZNSt3__122__compressed_pair_elemINS_9allocatorIPiEELi1ELb1EE5__getB8ne180100Ev, symObjAddr: 0x392F4, symBinAddr: 0x10003E834, symSize: 0x14 }
  - { offset: 0x3560E, size: 0x8, addend: 0x0, symName: __ZNSt3__122__compressed_pair_elemINS_9allocatorIPiEELi1ELb1EE5__getB8ne180100Ev, symObjAddr: 0x392F4, symBinAddr: 0x10003E834, symSize: 0x14 }
  - { offset: 0x35616, size: 0x8, addend: 0x0, symName: __ZNKSt3__114__split_bufferIPiNS_9allocatorIS1_EEE9__end_capB8ne180100Ev, symObjAddr: 0x39308, symBinAddr: 0x10003E848, symSize: 0x28 }
  - { offset: 0x35640, size: 0x8, addend: 0x0, symName: __ZNKSt3__114__split_bufferIPiNS_9allocatorIS1_EEE9__end_capB8ne180100Ev, symObjAddr: 0x39308, symBinAddr: 0x10003E848, symSize: 0x28 }
  - { offset: 0x35648, size: 0x8, addend: 0x0, symName: __ZNKSt3__117__compressed_pairIPPiNS_9allocatorIS1_EEE5firstB8ne180100Ev, symObjAddr: 0x39330, symBinAddr: 0x10003E870, symSize: 0x24 }
  - { offset: 0x35671, size: 0x8, addend: 0x0, symName: __ZNKSt3__117__compressed_pairIPPiNS_9allocatorIS1_EEE5firstB8ne180100Ev, symObjAddr: 0x39330, symBinAddr: 0x10003E870, symSize: 0x24 }
  - { offset: 0x35679, size: 0x8, addend: 0x0, symName: __ZNKSt3__122__compressed_pair_elemIPPiLi0ELb0EE5__getB8ne180100Ev, symObjAddr: 0x39354, symBinAddr: 0x10003E894, symSize: 0x14 }
  - { offset: 0x356A2, size: 0x8, addend: 0x0, symName: __ZNKSt3__122__compressed_pair_elemIPPiLi0ELb0EE5__getB8ne180100Ev, symObjAddr: 0x39354, symBinAddr: 0x10003E894, symSize: 0x14 }
  - { offset: 0x356AA, size: 0x8, addend: 0x0, symName: __ZNSt3__15dequeIiNS_9allocatorIiEEED2B8ne180100Ev, symObjAddr: 0x39368, symBinAddr: 0x10003E8A8, symSize: 0xF0 }
  - { offset: 0x356D4, size: 0x8, addend: 0x0, symName: __ZNSt3__15dequeIiNS_9allocatorIiEEED2B8ne180100Ev, symObjAddr: 0x39368, symBinAddr: 0x10003E8A8, symSize: 0xF0 }
  - { offset: 0x356DC, size: 0x8, addend: 0x0, symName: __ZNSt3__15dequeIiNS_9allocatorIiEEE5clearEv, symObjAddr: 0x39458, symBinAddr: 0x10003E998, symSize: 0x538 }
  - { offset: 0x35741, size: 0x8, addend: 0x0, symName: __ZNSt3__15dequeIiNS_9allocatorIiEEE5clearEv, symObjAddr: 0x39458, symBinAddr: 0x10003E998, symSize: 0x538 }
  - { offset: 0x35749, size: 0x8, addend: 0x0, symName: __ZNKSt3__15dequeIiNS_9allocatorIiEEE17__annotate_deleteB8ne180100Ev, symObjAddr: 0x39990, symBinAddr: 0x10003EED0, symSize: 0x160 }
  - { offset: 0x357C9, size: 0x8, addend: 0x0, symName: __ZNKSt3__15dequeIiNS_9allocatorIiEEE17__annotate_deleteB8ne180100Ev, symObjAddr: 0x39990, symBinAddr: 0x10003EED0, symSize: 0x160 }
  - { offset: 0x357D1, size: 0x8, addend: 0x0, symName: __ZNSt3__114__split_bufferIPiNS_9allocatorIS1_EEE5beginB8ne180100Ev, symObjAddr: 0x39AF0, symBinAddr: 0x10003F030, symSize: 0x64 }
  - { offset: 0x3581F, size: 0x8, addend: 0x0, symName: __ZNSt3__114__split_bufferIPiNS_9allocatorIS1_EEE5beginB8ne180100Ev, symObjAddr: 0x39AF0, symBinAddr: 0x10003F030, symSize: 0x64 }
  - { offset: 0x35827, size: 0x8, addend: 0x0, symName: __ZNSt3__114__split_bufferIPiNS_9allocatorIS1_EEE3endB8ne180100Ev, symObjAddr: 0x39B54, symBinAddr: 0x10003F094, symSize: 0x64 }
  - { offset: 0x35850, size: 0x8, addend: 0x0, symName: __ZNSt3__114__split_bufferIPiNS_9allocatorIS1_EEE3endB8ne180100Ev, symObjAddr: 0x39B54, symBinAddr: 0x10003F094, symSize: 0x64 }
  - { offset: 0x35858, size: 0x8, addend: 0x0, symName: __ZNSt3__15dequeIiNS_9allocatorIiEEE7__allocB8ne180100Ev, symObjAddr: 0x39BB8, symBinAddr: 0x10003F0F8, symSize: 0x28 }
  - { offset: 0x35881, size: 0x8, addend: 0x0, symName: __ZNSt3__15dequeIiNS_9allocatorIiEEE7__allocB8ne180100Ev, symObjAddr: 0x39BB8, symBinAddr: 0x10003F0F8, symSize: 0x28 }
  - { offset: 0x35889, size: 0x8, addend: 0x0, symName: __ZNSt3__116__deque_iteratorIiPiRiPS1_lLl1024EEppB8ne180100Ev, symObjAddr: 0x39BE0, symBinAddr: 0x10003F120, symSize: 0x1F8 }
  - { offset: 0x358B2, size: 0x8, addend: 0x0, symName: __ZNSt3__116__deque_iteratorIiPiRiPS1_lLl1024EEppB8ne180100Ev, symObjAddr: 0x39BE0, symBinAddr: 0x10003F120, symSize: 0x1F8 }
  - { offset: 0x358BA, size: 0x8, addend: 0x0, symName: __ZNSt3__15dequeIiNS_9allocatorIiEEE6__sizeB8ne180100Ev, symObjAddr: 0x39DD8, symBinAddr: 0x10003F318, symSize: 0x28 }
  - { offset: 0x358E3, size: 0x8, addend: 0x0, symName: __ZNSt3__15dequeIiNS_9allocatorIiEEE6__sizeB8ne180100Ev, symObjAddr: 0x39DD8, symBinAddr: 0x10003F318, symSize: 0x28 }
  - { offset: 0x358EB, size: 0x8, addend: 0x0, symName: __ZNSt3__114__split_bufferIPiNS_9allocatorIS1_EEE5frontB8ne180100Ev, symObjAddr: 0x39E00, symBinAddr: 0x10003F340, symSize: 0x64 }
  - { offset: 0x35914, size: 0x8, addend: 0x0, symName: __ZNSt3__114__split_bufferIPiNS_9allocatorIS1_EEE5frontB8ne180100Ev, symObjAddr: 0x39E00, symBinAddr: 0x10003F340, symSize: 0x64 }
  - { offset: 0x3591C, size: 0x8, addend: 0x0, symName: __ZNSt3__114__split_bufferIPiNS_9allocatorIS1_EEE9pop_frontB8ne180100Ev, symObjAddr: 0x39E64, symBinAddr: 0x10003F3A4, symSize: 0x6C }
  - { offset: 0x35945, size: 0x8, addend: 0x0, symName: __ZNSt3__114__split_bufferIPiNS_9allocatorIS1_EEE9pop_frontB8ne180100Ev, symObjAddr: 0x39E64, symBinAddr: 0x10003F3A4, symSize: 0x6C }
  - { offset: 0x3594D, size: 0x8, addend: 0x0, symName: __ZNSt3__117__compressed_pairImNS_9allocatorIiEEE5firstB8ne180100Ev, symObjAddr: 0x39ED0, symBinAddr: 0x10003F410, symSize: 0x24 }
  - { offset: 0x35976, size: 0x8, addend: 0x0, symName: __ZNSt3__117__compressed_pairImNS_9allocatorIiEEE5firstB8ne180100Ev, symObjAddr: 0x39ED0, symBinAddr: 0x10003F410, symSize: 0x24 }
  - { offset: 0x3597E, size: 0x8, addend: 0x0, symName: __ZNSt3__122__compressed_pair_elemImLi0ELb0EE5__getB8ne180100Ev, symObjAddr: 0x39EF4, symBinAddr: 0x10003F434, symSize: 0x14 }
  - { offset: 0x359A7, size: 0x8, addend: 0x0, symName: __ZNSt3__122__compressed_pair_elemImLi0ELb0EE5__getB8ne180100Ev, symObjAddr: 0x39EF4, symBinAddr: 0x10003F434, symSize: 0x14 }
  - { offset: 0x359AF, size: 0x8, addend: 0x0, symName: __ZNSt3__114__split_bufferIPiNS_9allocatorIS1_EEE19__destruct_at_beginB8ne180100EPS1_, symObjAddr: 0x39F08, symBinAddr: 0x10003F448, symSize: 0x2C }
  - { offset: 0x359D9, size: 0x8, addend: 0x0, symName: __ZNSt3__114__split_bufferIPiNS_9allocatorIS1_EEE19__destruct_at_beginB8ne180100EPS1_, symObjAddr: 0x39F08, symBinAddr: 0x10003F448, symSize: 0x2C }
  - { offset: 0x359E1, size: 0x8, addend: 0x0, symName: __ZNSt3__114__split_bufferIPiNS_9allocatorIS1_EEE19__destruct_at_beginEPS1_NS_17integral_constantIbLb1EEE, symObjAddr: 0x39F34, symBinAddr: 0x10003F474, symSize: 0x74 }
  - { offset: 0x35A1C, size: 0x8, addend: 0x0, symName: __ZNSt3__114__split_bufferIPiNS_9allocatorIS1_EEE19__destruct_at_beginEPS1_NS_17integral_constantIbLb1EEE, symObjAddr: 0x39F34, symBinAddr: 0x10003F474, symSize: 0x74 }
  - { offset: 0x35A24, size: 0x8, addend: 0x0, symName: __ZNKSt3__15dequeIiNS_9allocatorIiEEE22__annotate_whole_blockB8ne180100EmNS3_22__asan_annotation_typeE, symObjAddr: 0x39FA8, symBinAddr: 0x10003F4E8, symSize: 0x14C }
  - { offset: 0x35A6F, size: 0x8, addend: 0x0, symName: __ZNKSt3__15dequeIiNS_9allocatorIiEEE22__annotate_whole_blockB8ne180100EmNS3_22__asan_annotation_typeE, symObjAddr: 0x39FA8, symBinAddr: 0x10003F4E8, symSize: 0x14C }
  - { offset: 0x35A77, size: 0x8, addend: 0x0, symName: __ZNKSt3__15dequeIiNS_9allocatorIiEEE23__annotate_poison_blockB8ne180100EPKvS5_, symObjAddr: 0x3A0F4, symBinAddr: 0x10003F634, symSize: 0x6C }
  - { offset: 0x35AFF, size: 0x8, addend: 0x0, symName: __ZNKSt3__15dequeIiNS_9allocatorIiEEE23__annotate_poison_blockB8ne180100EPKvS5_, symObjAddr: 0x3A0F4, symBinAddr: 0x10003F634, symSize: 0x6C }
  - { offset: 0x35B07, size: 0x8, addend: 0x0, symName: __ZNSt3__117__compressed_pairImNS_9allocatorIiEEE6secondB8ne180100Ev, symObjAddr: 0x3A160, symBinAddr: 0x10003F6A0, symSize: 0x24 }
  - { offset: 0x35B56, size: 0x8, addend: 0x0, symName: __ZNSt3__117__compressed_pairImNS_9allocatorIiEEE6secondB8ne180100Ev, symObjAddr: 0x3A160, symBinAddr: 0x10003F6A0, symSize: 0x24 }
  - { offset: 0x35B5E, size: 0x8, addend: 0x0, symName: __ZNKSt3__15dequeIiNS_9allocatorIiEEE12__back_spareB8ne180100Ev, symObjAddr: 0x3A184, symBinAddr: 0x10003F6C4, symSize: 0x90 }
  - { offset: 0x35B87, size: 0x8, addend: 0x0, symName: __ZNKSt3__15dequeIiNS_9allocatorIiEEE12__back_spareB8ne180100Ev, symObjAddr: 0x3A184, symBinAddr: 0x10003F6C4, symSize: 0x90 }
  - { offset: 0x35B8F, size: 0x8, addend: 0x0, symName: __ZNSt3__15dequeIiNS_9allocatorIiEEE19__add_back_capacityEv, symObjAddr: 0x3A214, symBinAddr: 0x10003F754, symSize: 0xAF8 }
  - { offset: 0x35BB8, size: 0x8, addend: 0x0, symName: __ZNSt3__15dequeIiNS_9allocatorIiEEE19__add_back_capacityEv, symObjAddr: 0x3A214, symBinAddr: 0x10003F754, symSize: 0xAF8 }
  - { offset: 0x35BC0, size: 0x8, addend: 0x0, symName: __ZNKSt3__15dequeIiNS_9allocatorIiEEE24__annotate_increase_backB8ne180100Em, symObjAddr: 0x3AD0C, symBinAddr: 0x10004024C, symSize: 0xEC }
  - { offset: 0x35C97, size: 0x8, addend: 0x0, symName: __ZNKSt3__15dequeIiNS_9allocatorIiEEE24__annotate_increase_backB8ne180100Em, symObjAddr: 0x3AD0C, symBinAddr: 0x10004024C, symSize: 0xEC }
  - { offset: 0x35C9F, size: 0x8, addend: 0x0, symName: __ZNKSt3__15dequeIiNS_9allocatorIiEEE10__capacityB8ne180100Ev, symObjAddr: 0x3ADF8, symBinAddr: 0x100040338, symSize: 0x60 }
  - { offset: 0x35CDB, size: 0x8, addend: 0x0, symName: __ZNKSt3__15dequeIiNS_9allocatorIiEEE10__capacityB8ne180100Ev, symObjAddr: 0x3ADF8, symBinAddr: 0x100040338, symSize: 0x60 }
  - { offset: 0x35CE3, size: 0x8, addend: 0x0, symName: __ZNKSt3__15dequeIiNS_9allocatorIiEEE13__front_spareB8ne180100Ev, symObjAddr: 0x3AE58, symBinAddr: 0x100040398, symSize: 0x64 }
  - { offset: 0x35D0C, size: 0x8, addend: 0x0, symName: __ZNKSt3__15dequeIiNS_9allocatorIiEEE13__front_spareB8ne180100Ev, symObjAddr: 0x3AE58, symBinAddr: 0x100040398, symSize: 0x64 }
  - { offset: 0x35D14, size: 0x8, addend: 0x0, symName: __ZNSt3__114__split_bufferIPiNS_9allocatorIS1_EEE9push_backB8ne180100ERKS1_, symObjAddr: 0x3AEBC, symBinAddr: 0x1000403FC, symSize: 0xB0C }
  - { offset: 0x35D3D, size: 0x8, addend: 0x0, symName: __ZNSt3__114__split_bufferIPiNS_9allocatorIS1_EEE9push_backB8ne180100ERKS1_, symObjAddr: 0x3AEBC, symBinAddr: 0x1000403FC, symSize: 0xB0C }
  - { offset: 0x35D45, size: 0x8, addend: 0x0, symName: __ZNKSt3__114__split_bufferIPiNS_9allocatorIS1_EEE12__back_spareB8ne180100Ev, symObjAddr: 0x3B9C8, symBinAddr: 0x100040F08, symSize: 0xC0 }
  - { offset: 0x35DDB, size: 0x8, addend: 0x0, symName: __ZNKSt3__114__split_bufferIPiNS_9allocatorIS1_EEE12__back_spareB8ne180100Ev, symObjAddr: 0x3B9C8, symBinAddr: 0x100040F08, symSize: 0xC0 }
  - { offset: 0x35DE3, size: 0x8, addend: 0x0, symName: __ZNSt3__114__split_bufferIPiNS_9allocatorIS1_EEE9push_backEOS1_, symObjAddr: 0x3BA88, symBinAddr: 0x100040FC8, symSize: 0xB0C }
  - { offset: 0x35E0C, size: 0x8, addend: 0x0, symName: __ZNSt3__114__split_bufferIPiNS_9allocatorIS1_EEE9push_backEOS1_, symObjAddr: 0x3BA88, symBinAddr: 0x100040FC8, symSize: 0xB0C }
  - { offset: 0x35E14, size: 0x8, addend: 0x0, symName: __ZNSt3__116allocator_traitsINS_9allocatorIiEEE8allocateB8ne180100ERS2_m, symObjAddr: 0x3C594, symBinAddr: 0x100041AD4, symSize: 0x2C }
  - { offset: 0x35EAA, size: 0x8, addend: 0x0, symName: __ZNSt3__116allocator_traitsINS_9allocatorIiEEE8allocateB8ne180100ERS2_m, symObjAddr: 0x3C594, symBinAddr: 0x100041AD4, symSize: 0x2C }
  - { offset: 0x35EB2, size: 0x8, addend: 0x0, symName: __ZNSt3__114__split_bufferIPiNS_9allocatorIS1_EEE10push_frontEOS1_, symObjAddr: 0x3C5C0, symBinAddr: 0x100041B00, symSize: 0xB10 }
  - { offset: 0x35EEC, size: 0x8, addend: 0x0, symName: __ZNSt3__114__split_bufferIPiNS_9allocatorIS1_EEE10push_frontEOS1_, symObjAddr: 0x3C5C0, symBinAddr: 0x100041B00, symSize: 0xB10 }
  - { offset: 0x35EF4, size: 0x8, addend: 0x0, symName: __ZNSt3__114__split_bufferIPiRNS_9allocatorIS1_EEEC1EmmS4_, symObjAddr: 0x3D0D0, symBinAddr: 0x100042610, symSize: 0x44 }
  - { offset: 0x35F8B, size: 0x8, addend: 0x0, symName: __ZNSt3__114__split_bufferIPiRNS_9allocatorIS1_EEEC1EmmS4_, symObjAddr: 0x3D0D0, symBinAddr: 0x100042610, symSize: 0x44 }
  - { offset: 0x35F93, size: 0x8, addend: 0x0, symName: __ZNSt3__122__allocator_destructorINS_9allocatorIiEEEC1B8ne180100ERS2_m, symObjAddr: 0x3D114, symBinAddr: 0x100042654, symSize: 0x3C }
  - { offset: 0x36001, size: 0x8, addend: 0x0, symName: __ZNSt3__122__allocator_destructorINS_9allocatorIiEEEC1B8ne180100ERS2_m, symObjAddr: 0x3D114, symBinAddr: 0x100042654, symSize: 0x3C }
  - { offset: 0x36009, size: 0x8, addend: 0x0, symName: __ZNSt3__110unique_ptrIPiNS_22__allocator_destructorINS_9allocatorIiEEEEEC1B8ne180100ILb1EvEES1_NS_16__dependent_typeINS_27__unique_ptr_deleter_sfinaeIS5_EEXT_EE20__good_rval_ref_typeE, symObjAddr: 0x3D150, symBinAddr: 0x100042690, symSize: 0x3C }
  - { offset: 0x36120, size: 0x8, addend: 0x0, symName: __ZNSt3__110unique_ptrIPiNS_22__allocator_destructorINS_9allocatorIiEEEEEC1B8ne180100ILb1EvEES1_NS_16__dependent_typeINS_27__unique_ptr_deleter_sfinaeIS5_EEXT_EE20__good_rval_ref_typeE, symObjAddr: 0x3D150, symBinAddr: 0x100042690, symSize: 0x3C }
  - { offset: 0x36128, size: 0x8, addend: 0x0, symName: __ZNSt3__114__split_bufferIPiRNS_9allocatorIS1_EEE9push_backEOS1_, symObjAddr: 0x3D18C, symBinAddr: 0x1000426CC, symSize: 0xB0C }
  - { offset: 0x36188, size: 0x8, addend: 0x0, symName: __ZNSt3__114__split_bufferIPiRNS_9allocatorIS1_EEE9push_backEOS1_, symObjAddr: 0x3D18C, symBinAddr: 0x1000426CC, symSize: 0xB0C }
  - { offset: 0x36190, size: 0x8, addend: 0x0, symName: __ZNKSt3__110unique_ptrIPiNS_22__allocator_destructorINS_9allocatorIiEEEEE3getB8ne180100Ev, symObjAddr: 0x3DC98, symBinAddr: 0x1000431D8, symSize: 0x6C }
  - { offset: 0x36226, size: 0x8, addend: 0x0, symName: __ZNKSt3__110unique_ptrIPiNS_22__allocator_destructorINS_9allocatorIiEEEEE3getB8ne180100Ev, symObjAddr: 0x3DC98, symBinAddr: 0x1000431D8, symSize: 0x6C }
  - { offset: 0x3622E, size: 0x8, addend: 0x0, symName: __ZNSt3__110unique_ptrIPiNS_22__allocator_destructorINS_9allocatorIiEEEEE7releaseB8ne180100Ev, symObjAddr: 0x3DD04, symBinAddr: 0x100043244, symSize: 0xB8 }
  - { offset: 0x36257, size: 0x8, addend: 0x0, symName: __ZNSt3__110unique_ptrIPiNS_22__allocator_destructorINS_9allocatorIiEEEEE7releaseB8ne180100Ev, symObjAddr: 0x3DD04, symBinAddr: 0x100043244, symSize: 0xB8 }
  - { offset: 0x3625F, size: 0x8, addend: 0x0, symName: __ZNSt3__114__split_bufferIPiRNS_9allocatorIS1_EEE10push_frontERKS1_, symObjAddr: 0x3DDBC, symBinAddr: 0x1000432FC, symSize: 0xB10 }
  - { offset: 0x3629B, size: 0x8, addend: 0x0, symName: __ZNSt3__114__split_bufferIPiRNS_9allocatorIS1_EEE10push_frontERKS1_, symObjAddr: 0x3DDBC, symBinAddr: 0x1000432FC, symSize: 0xB10 }
  - { offset: 0x362A3, size: 0x8, addend: 0x0, symName: __ZNSt3__14swapB8ne180100IPPiEEvRT_S4_, symObjAddr: 0x3E8CC, symBinAddr: 0x100043E0C, symSize: 0x134 }
  - { offset: 0x36339, size: 0x8, addend: 0x0, symName: __ZNSt3__114__split_bufferIPiNS_9allocatorIS1_EEE9__end_capB8ne180100Ev, symObjAddr: 0x3EA00, symBinAddr: 0x100043F40, symSize: 0x28 }
  - { offset: 0x36341, size: 0x8, addend: 0x0, symName: __ZNSt3__114__split_bufferIPiRNS_9allocatorIS1_EEE9__end_capB8ne180100Ev, symObjAddr: 0x3EA28, symBinAddr: 0x100043F68, symSize: 0x28 }
  - { offset: 0x3636A, size: 0x8, addend: 0x0, symName: __ZNSt3__114__split_bufferIPiRNS_9allocatorIS1_EEE9__end_capB8ne180100Ev, symObjAddr: 0x3EA28, symBinAddr: 0x100043F68, symSize: 0x28 }
  - { offset: 0x36372, size: 0x8, addend: 0x0, symName: __ZNSt3__110unique_ptrIPiNS_22__allocator_destructorINS_9allocatorIiEEEEED1B8ne180100Ev, symObjAddr: 0x3EA50, symBinAddr: 0x100043F90, symSize: 0x2C }
  - { offset: 0x3639B, size: 0x8, addend: 0x0, symName: __ZNSt3__110unique_ptrIPiNS_22__allocator_destructorINS_9allocatorIiEEEEED1B8ne180100Ev, symObjAddr: 0x3EA50, symBinAddr: 0x100043F90, symSize: 0x2C }
  - { offset: 0x363A3, size: 0x8, addend: 0x0, symName: __ZNSt3__114__split_bufferIPiRNS_9allocatorIS1_EEED1Ev, symObjAddr: 0x3EA7C, symBinAddr: 0x100043FBC, symSize: 0x2C }
  - { offset: 0x363D1, size: 0x8, addend: 0x0, symName: __ZNSt3__114__split_bufferIPiRNS_9allocatorIS1_EEED1Ev, symObjAddr: 0x3EA7C, symBinAddr: 0x100043FBC, symSize: 0x2C }
  - { offset: 0x363D9, size: 0x8, addend: 0x0, symName: __ZNSt3__14moveB8ne180100IPPiS2_EET0_T_S4_S3_, symObjAddr: 0x3EAA8, symBinAddr: 0x100043FE8, symSize: 0x24C }
  - { offset: 0x36408, size: 0x8, addend: 0x0, symName: __ZNSt3__114__split_bufferIPiRNS_9allocatorIS1_EEE18__construct_at_endINS_13move_iteratorIPS1_EELi0EEEvT_SA_, symObjAddr: 0x3ECF4, symBinAddr: 0x100044234, symSize: 0x3CC }
  - { offset: 0x36410, size: 0x8, addend: 0x0, symName: __ZNSt3__113move_iteratorIPPiEC1B8ne180100ES2_, symObjAddr: 0x3F0C0, symBinAddr: 0x100044600, symSize: 0x34 }
  - { offset: 0x3647F, size: 0x8, addend: 0x0, symName: __ZNSt3__113move_iteratorIPPiEC1B8ne180100ES2_, symObjAddr: 0x3F0C0, symBinAddr: 0x100044600, symSize: 0x34 }
  - { offset: 0x36487, size: 0x8, addend: 0x0, symName: __ZNSt3__116allocator_traitsINS_9allocatorIPiEEE9constructB8ne180100IS2_JRKS2_EvEEvRS3_PT_DpOT0_, symObjAddr: 0x3F0F4, symBinAddr: 0x100044634, symSize: 0x34 }
  - { offset: 0x364C6, size: 0x8, addend: 0x0, symName: __ZNSt3__116allocator_traitsINS_9allocatorIPiEEE9constructB8ne180100IS2_JRKS2_EvEEvRS3_PT_DpOT0_, symObjAddr: 0x3F0F4, symBinAddr: 0x100044634, symSize: 0x34 }
  - { offset: 0x364CE, size: 0x8, addend: 0x0, symName: __ZNSt3__16__moveB8ne180100INS_17_ClassicAlgPolicyEPPiS3_S3_EENS_4pairIT0_T2_EES5_T1_S6_, symObjAddr: 0x3F128, symBinAddr: 0x100044668, symSize: 0x224 }
  - { offset: 0x36565, size: 0x8, addend: 0x0, symName: __ZNKSt3__114__move_trivialclB8ne180100IPiS2_Li0EEENS_4pairIPT_PT0_EES5_S5_S7_, symObjAddr: 0x3FE4C, symBinAddr: 0x10004538C, symSize: 0x228 }
  - { offset: 0x3656D, size: 0x8, addend: 0x0, symName: __ZNSt3__113__unwrap_iterB8ne180100IPPiNS_18__unwrap_iter_implIS2_Lb1EEELi0EEEDTclsrT0_8__unwrapclsr3stdE7declvalIT_EEEES6_, symObjAddr: 0x40074, symBinAddr: 0x1000455B4, symSize: 0x24 }
  - { offset: 0x365F4, size: 0x8, addend: 0x0, symName: __ZNSt3__14pairIPPiS2_EC1B8ne180100ERKS2_S5_, symObjAddr: 0x4097C, symBinAddr: 0x100045EBC, symSize: 0x3C }
  - { offset: 0x365FC, size: 0x8, addend: 0x0, symName: __ZNSt3__14pairIPPiS2_EC2B8ne180100ERKS2_S5_, symObjAddr: 0x409B8, symBinAddr: 0x100045EF8, symSize: 0x138 }
  - { offset: 0x3664D, size: 0x8, addend: 0x0, symName: __ZNSt3__14pairIPPiS2_EC2B8ne180100ERKS2_S5_, symObjAddr: 0x409B8, symBinAddr: 0x100045EF8, symSize: 0x138 }
  - { offset: 0x36655, size: 0x8, addend: 0x0, symName: __ZNSt3__118__unwrap_iter_implIPPiLb1EE8__unwrapB8ne180100ES2_, symObjAddr: 0x40AF0, symBinAddr: 0x100046030, symSize: 0x24 }
  - { offset: 0x366A6, size: 0x8, addend: 0x0, symName: __ZNSt3__118__unwrap_iter_implIPPiLb1EE8__unwrapB8ne180100ES2_, symObjAddr: 0x40AF0, symBinAddr: 0x100046030, symSize: 0x24 }
  - { offset: 0x366AE, size: 0x8, addend: 0x0, symName: __ZNSt3__118__unwrap_iter_implIPPiLb1EE8__rewrapB8ne180100ES2_S2_, symObjAddr: 0x40B14, symBinAddr: 0x100046054, symSize: 0x50 }
  - { offset: 0x366D4, size: 0x8, addend: 0x0, symName: __ZNSt3__118__unwrap_iter_implIPPiLb1EE8__rewrapB8ne180100ES2_S2_, symObjAddr: 0x40B14, symBinAddr: 0x100046054, symSize: 0x50 }
  - { offset: 0x366DC, size: 0x8, addend: 0x0, symName: __ZNSt3__114__split_bufferIPiRNS_9allocatorIS1_EEE28__construct_at_end_with_sizeINS_13move_iteratorIPS1_EEEEvT_m, symObjAddr: 0x40B64, symBinAddr: 0x1000460A4, symSize: 0x4EC }
  - { offset: 0x36714, size: 0x8, addend: 0x0, symName: __ZNSt3__114__split_bufferIPiRNS_9allocatorIS1_EEE28__construct_at_end_with_sizeINS_13move_iteratorIPS1_EEEEvT_m, symObjAddr: 0x40B64, symBinAddr: 0x1000460A4, symSize: 0x4EC }
  - { offset: 0x3671C, size: 0x8, addend: 0x0, symName: __ZNSt3__18distanceB8ne180100INS_13move_iteratorIPPiEEEENS_15iterator_traitsIT_E15difference_typeES6_S6_, symObjAddr: 0x41050, symBinAddr: 0x100046590, symSize: 0x348 }
  - { offset: 0x367A7, size: 0x8, addend: 0x0, symName: __ZNSt3__114__split_bufferIPiRNS_9allocatorIS1_EEE21_ConstructTransactionC1B8ne180100EPPS1_m, symObjAddr: 0x41398, symBinAddr: 0x1000468D8, symSize: 0x3C }
  - { offset: 0x367AF, size: 0x8, addend: 0x0, symName: __ZNSt3__116allocator_traitsINS_9allocatorIPiEEE9constructB8ne180100IS2_JS2_EvEEvRS3_PT_DpOT0_, symObjAddr: 0x413D4, symBinAddr: 0x100046914, symSize: 0x34 }
  - { offset: 0x36800, size: 0x8, addend: 0x0, symName: __ZNSt3__116allocator_traitsINS_9allocatorIPiEEE9constructB8ne180100IS2_JS2_EvEEvRS3_PT_DpOT0_, symObjAddr: 0x413D4, symBinAddr: 0x100046914, symSize: 0x34 }
  - { offset: 0x36808, size: 0x8, addend: 0x0, symName: __ZNSt3__114__split_bufferIPiRNS_9allocatorIS1_EEE7__allocB8ne180100Ev, symObjAddr: 0x41408, symBinAddr: 0x100046948, symSize: 0x28 }
  - { offset: 0x36872, size: 0x8, addend: 0x0, symName: __ZNSt3__114__split_bufferIPiRNS_9allocatorIS1_EEE7__allocB8ne180100Ev, symObjAddr: 0x41408, symBinAddr: 0x100046948, symSize: 0x28 }
  - { offset: 0x3687A, size: 0x8, addend: 0x0, symName: __ZNKSt3__113move_iteratorIPPiEdeB8ne180100Ev, symObjAddr: 0x41430, symBinAddr: 0x100046970, symSize: 0x60 }
  - { offset: 0x368A3, size: 0x8, addend: 0x0, symName: __ZNKSt3__113move_iteratorIPPiEdeB8ne180100Ev, symObjAddr: 0x41430, symBinAddr: 0x100046970, symSize: 0x60 }
  - { offset: 0x368AB, size: 0x8, addend: 0x0, symName: __ZNSt3__113move_iteratorIPPiEppB8ne180100Ev, symObjAddr: 0x41490, symBinAddr: 0x1000469D0, symSize: 0x68 }
  - { offset: 0x368D4, size: 0x8, addend: 0x0, symName: __ZNSt3__113move_iteratorIPPiEppB8ne180100Ev, symObjAddr: 0x41490, symBinAddr: 0x1000469D0, symSize: 0x68 }
  - { offset: 0x368DC, size: 0x8, addend: 0x0, symName: __ZNSt3__114__split_bufferIPiRNS_9allocatorIS1_EEE21_ConstructTransactionD1B8ne180100Ev, symObjAddr: 0x414F8, symBinAddr: 0x100046A38, symSize: 0x2C }
  - { offset: 0x36905, size: 0x8, addend: 0x0, symName: __ZNSt3__114__split_bufferIPiRNS_9allocatorIS1_EEE21_ConstructTransactionD1B8ne180100Ev, symObjAddr: 0x414F8, symBinAddr: 0x100046A38, symSize: 0x2C }
  - { offset: 0x3690D, size: 0x8, addend: 0x0, symName: __ZNSt3__114__split_bufferIPiRNS_9allocatorIS1_EEE21_ConstructTransactionC2B8ne180100EPPS1_m, symObjAddr: 0x41524, symBinAddr: 0x100046A64, symSize: 0x184 }
  - { offset: 0x3693A, size: 0x8, addend: 0x0, symName: __ZNSt3__114__split_bufferIPiRNS_9allocatorIS1_EEE21_ConstructTransactionC2B8ne180100EPPS1_m, symObjAddr: 0x41524, symBinAddr: 0x100046A64, symSize: 0x184 }
  - { offset: 0x36942, size: 0x8, addend: 0x0, symName: __ZNSt3__19allocatorIPiE9constructB8ne180100IS1_JS1_EEEvPT_DpOT0_, symObjAddr: 0x416A8, symBinAddr: 0x100046BE8, symSize: 0xB4 }
  - { offset: 0x36993, size: 0x8, addend: 0x0, symName: __ZNSt3__19allocatorIPiE9constructB8ne180100IS1_JS1_EEEvPT_DpOT0_, symObjAddr: 0x416A8, symBinAddr: 0x100046BE8, symSize: 0xB4 }
  - { offset: 0x3699B, size: 0x8, addend: 0x0, symName: __ZNSt3__117__compressed_pairIPPiRNS_9allocatorIS1_EEE6secondB8ne180100Ev, symObjAddr: 0x4175C, symBinAddr: 0x100046C9C, symSize: 0x28 }
  - { offset: 0x36A04, size: 0x8, addend: 0x0, symName: __ZNSt3__117__compressed_pairIPPiRNS_9allocatorIS1_EEE6secondB8ne180100Ev, symObjAddr: 0x4175C, symBinAddr: 0x100046C9C, symSize: 0x28 }
  - { offset: 0x36A0C, size: 0x8, addend: 0x0, symName: __ZNSt3__122__compressed_pair_elemIRNS_9allocatorIPiEELi1ELb0EE5__getB8ne180100Ev, symObjAddr: 0x41784, symBinAddr: 0x100046CC4, symSize: 0x60 }
  - { offset: 0x36A35, size: 0x8, addend: 0x0, symName: __ZNSt3__122__compressed_pair_elemIRNS_9allocatorIPiEELi1ELb0EE5__getB8ne180100Ev, symObjAddr: 0x41784, symBinAddr: 0x100046CC4, symSize: 0x60 }
  - { offset: 0x36A3D, size: 0x8, addend: 0x0, symName: __ZNSt3__114__split_bufferIPiRNS_9allocatorIS1_EEE21_ConstructTransactionD2B8ne180100Ev, symObjAddr: 0x417E4, symBinAddr: 0x100046D24, symSize: 0xE0 }
  - { offset: 0x36A66, size: 0x8, addend: 0x0, symName: __ZNSt3__114__split_bufferIPiRNS_9allocatorIS1_EEE21_ConstructTransactionD2B8ne180100Ev, symObjAddr: 0x417E4, symBinAddr: 0x100046D24, symSize: 0xE0 }
  - { offset: 0x36A6E, size: 0x8, addend: 0x0, symName: __ZNSt3__110__distanceB8ne180100INS_13move_iteratorIPPiEEEENS_15iterator_traitsIT_E15difference_typeES6_S6_NS_26random_access_iterator_tagE, symObjAddr: 0x418C4, symBinAddr: 0x100046E04, symSize: 0x264 }
  - { offset: 0x36A9B, size: 0x8, addend: 0x0, symName: __ZNKSt3__113move_iteratorIPPiE4baseB8ne180100Ev, symObjAddr: 0x41B70, symBinAddr: 0x1000470B0, symSize: 0x60 }
  - { offset: 0x36AA3, size: 0x8, addend: 0x0, symName: __ZNSt3__113move_iteratorIPPiEC2B8ne180100ES2_, symObjAddr: 0x41BD0, symBinAddr: 0x100047110, symSize: 0x70 }
  - { offset: 0x36ACC, size: 0x8, addend: 0x0, symName: __ZNSt3__113move_iteratorIPPiEC2B8ne180100ES2_, symObjAddr: 0x41BD0, symBinAddr: 0x100047110, symSize: 0x70 }
  - { offset: 0x36AD4, size: 0x8, addend: 0x0, symName: __ZNSt3__19allocatorIPiE9constructB8ne180100IS1_JRKS1_EEEvPT_DpOT0_, symObjAddr: 0x41C40, symBinAddr: 0x100047180, symSize: 0xB4 }
  - { offset: 0x36B13, size: 0x8, addend: 0x0, symName: __ZNSt3__19allocatorIPiE9constructB8ne180100IS1_JRKS1_EEEvPT_DpOT0_, symObjAddr: 0x41C40, symBinAddr: 0x100047180, symSize: 0xB4 }
  - { offset: 0x36B1B, size: 0x8, addend: 0x0, symName: __ZNSt3__113move_backwardB8ne180100IPPiS2_EET0_T_S4_S3_, symObjAddr: 0x41CF4, symBinAddr: 0x100047234, symSize: 0x24C }
  - { offset: 0x36B84, size: 0x8, addend: 0x0, symName: __ZNKSt3__123__move_backward_trivialclB8ne180100IPiS2_Li0EEENS_4pairIPT_PT0_EES5_S5_S7_, symObjAddr: 0x42924, symBinAddr: 0x100047E64, symSize: 0x228 }
  - { offset: 0x36B8C, size: 0x8, addend: 0x0, symName: __ZNSt3__128__copy_backward_trivial_implB8ne180100IPiS1_EENS_4pairIPT_PT0_EES4_S4_S6_, symObjAddr: 0x42B4C, symBinAddr: 0x10004808C, symSize: 0x3CC }
  - { offset: 0x36C14, size: 0x8, addend: 0x0, symName: __ZNSt3__114__split_bufferIPiRNS_9allocatorIS1_EEEC2EmmS4_, symObjAddr: 0x4311C, symBinAddr: 0x10004865C, symSize: 0x510 }
  - { offset: 0x36C1C, size: 0x8, addend: 0x0, symName: __ZNSt3__117__compressed_pairIPPiRNS_9allocatorIS1_EEEC1B8ne180100IDnS5_EEOT_OT0_, symObjAddr: 0x4362C, symBinAddr: 0x100048B6C, symSize: 0x3C }
  - { offset: 0x36CAE, size: 0x8, addend: 0x0, symName: __ZNSt3__117__compressed_pairIPPiRNS_9allocatorIS1_EEEC1B8ne180100IDnS5_EEOT_OT0_, symObjAddr: 0x4362C, symBinAddr: 0x100048B6C, symSize: 0x3C }
  - { offset: 0x36CB6, size: 0x8, addend: 0x0, symName: __ZNSt3__119__allocate_at_leastB8ne180100INS_9allocatorIPiEEEENS_19__allocation_resultINS_16allocator_traitsIT_E7pointerEEERS6_m, symObjAddr: 0x43668, symBinAddr: 0x100048BA8, symSize: 0x284 }
  - { offset: 0x36D21, size: 0x8, addend: 0x0, symName: __ZNSt3__117__compressed_pairIPPiRNS_9allocatorIS1_EEEC2B8ne180100IDnS5_EEOT_OT0_, symObjAddr: 0x438EC, symBinAddr: 0x100048E2C, symSize: 0x48 }
  - { offset: 0x36D29, size: 0x8, addend: 0x0, symName: __ZNSt3__122__compressed_pair_elemIRNS_9allocatorIPiEELi1ELb0EEC2B8ne180100IS4_vEEOT_, symObjAddr: 0x43934, symBinAddr: 0x100048E74, symSize: 0x70 }
  - { offset: 0x36D94, size: 0x8, addend: 0x0, symName: __ZNSt3__122__compressed_pair_elemIRNS_9allocatorIPiEELi1ELb0EEC2B8ne180100IS4_vEEOT_, symObjAddr: 0x43934, symBinAddr: 0x100048E74, symSize: 0x70 }
  - { offset: 0x36D9C, size: 0x8, addend: 0x0, symName: __ZNSt3__19allocatorIPiE8allocateB8ne180100Em, symObjAddr: 0x439A4, symBinAddr: 0x100048EE4, symSize: 0x88 }
  - { offset: 0x36DE9, size: 0x8, addend: 0x0, symName: __ZNSt3__19allocatorIPiE8allocateB8ne180100Em, symObjAddr: 0x439A4, symBinAddr: 0x100048EE4, symSize: 0x88 }
  - { offset: 0x36DF1, size: 0x8, addend: 0x0, symName: __ZNSt3__116allocator_traitsINS_9allocatorIPiEEE8max_sizeB8ne180100IS3_vEEmRKS3_, symObjAddr: 0x43A2C, symBinAddr: 0x100048F6C, symSize: 0x24 }
  - { offset: 0x36E3E, size: 0x8, addend: 0x0, symName: __ZNSt3__116allocator_traitsINS_9allocatorIPiEEE8max_sizeB8ne180100IS3_vEEmRKS3_, symObjAddr: 0x43A2C, symBinAddr: 0x100048F6C, symSize: 0x24 }
  - { offset: 0x36E46, size: 0x8, addend: 0x0, symName: __ZNKSt3__19allocatorIPiE8max_sizeB8ne180100Ev, symObjAddr: 0x43A50, symBinAddr: 0x100048F90, symSize: 0x14 }
  - { offset: 0x36E7B, size: 0x8, addend: 0x0, symName: __ZNKSt3__19allocatorIPiE8max_sizeB8ne180100Ev, symObjAddr: 0x43A50, symBinAddr: 0x100048F90, symSize: 0x14 }
  - { offset: 0x36E83, size: 0x8, addend: 0x0, symName: __ZNSt3__122__allocator_destructorINS_9allocatorIiEEEC2B8ne180100ERS2_m, symObjAddr: 0x43A64, symBinAddr: 0x100048FA4, symSize: 0xBC }
  - { offset: 0x36EAD, size: 0x8, addend: 0x0, symName: __ZNSt3__122__allocator_destructorINS_9allocatorIiEEEC2B8ne180100ERS2_m, symObjAddr: 0x43A64, symBinAddr: 0x100048FA4, symSize: 0xBC }
  - { offset: 0x36EB5, size: 0x8, addend: 0x0, symName: __ZNSt3__110unique_ptrIPiNS_22__allocator_destructorINS_9allocatorIiEEEEEC2B8ne180100ILb1EvEES1_NS_16__dependent_typeINS_27__unique_ptr_deleter_sfinaeIS5_EEXT_EE20__good_rval_ref_typeE, symObjAddr: 0x43B20, symBinAddr: 0x100049060, symSize: 0x280 }
  - { offset: 0x36F06, size: 0x8, addend: 0x0, symName: __ZNSt3__110unique_ptrIPiNS_22__allocator_destructorINS_9allocatorIiEEEEEC2B8ne180100ILb1EvEES1_NS_16__dependent_typeINS_27__unique_ptr_deleter_sfinaeIS5_EEXT_EE20__good_rval_ref_typeE, symObjAddr: 0x43B20, symBinAddr: 0x100049060, symSize: 0x280 }
  - { offset: 0x36F0E, size: 0x8, addend: 0x0, symName: __ZNSt3__117__compressed_pairIPiNS_22__allocator_destructorINS_9allocatorIiEEEEEC1B8ne180100IRS1_S5_EEOT_OT0_, symObjAddr: 0x43DA0, symBinAddr: 0x1000492E0, symSize: 0x3C }
  - { offset: 0x36F74, size: 0x8, addend: 0x0, symName: __ZNSt3__117__compressed_pairIPiNS_22__allocator_destructorINS_9allocatorIiEEEEEC1B8ne180100IRS1_S5_EEOT_OT0_, symObjAddr: 0x43DA0, symBinAddr: 0x1000492E0, symSize: 0x3C }
  - { offset: 0x36F7C, size: 0x8, addend: 0x0, symName: __ZNSt3__117__compressed_pairIPiNS_22__allocator_destructorINS_9allocatorIiEEEEEC2B8ne180100IRS1_S5_EEOT_OT0_, symObjAddr: 0x43DDC, symBinAddr: 0x10004931C, symSize: 0x48 }
  - { offset: 0x36FE7, size: 0x8, addend: 0x0, symName: __ZNSt3__117__compressed_pairIPiNS_22__allocator_destructorINS_9allocatorIiEEEEEC2B8ne180100IRS1_S5_EEOT_OT0_, symObjAddr: 0x43DDC, symBinAddr: 0x10004931C, symSize: 0x48 }
  - { offset: 0x36FEF, size: 0x8, addend: 0x0, symName: __ZNSt3__122__compressed_pair_elemIPiLi0ELb0EEC2B8ne180100IRS1_vEEOT_, symObjAddr: 0x43E24, symBinAddr: 0x100049364, symSize: 0xB0 }
  - { offset: 0x3705A, size: 0x8, addend: 0x0, symName: __ZNSt3__122__compressed_pair_elemIPiLi0ELb0EEC2B8ne180100IRS1_vEEOT_, symObjAddr: 0x43E24, symBinAddr: 0x100049364, symSize: 0xB0 }
  - { offset: 0x37062, size: 0x8, addend: 0x0, symName: __ZNSt3__122__compressed_pair_elemINS_22__allocator_destructorINS_9allocatorIiEEEELi1ELb0EEC2B8ne180100IS4_vEEOT_, symObjAddr: 0x43ED4, symBinAddr: 0x100049414, symSize: 0x38 }
  - { offset: 0x370AF, size: 0x8, addend: 0x0, symName: __ZNSt3__122__compressed_pair_elemINS_22__allocator_destructorINS_9allocatorIiEEEELi1ELb0EEC2B8ne180100IS4_vEEOT_, symObjAddr: 0x43ED4, symBinAddr: 0x100049414, symSize: 0x38 }
  - { offset: 0x370B7, size: 0x8, addend: 0x0, symName: __ZNKSt3__117__compressed_pairIPiNS_22__allocator_destructorINS_9allocatorIiEEEEE5firstB8ne180100Ev, symObjAddr: 0x43F0C, symBinAddr: 0x10004944C, symSize: 0x24 }
  - { offset: 0x37104, size: 0x8, addend: 0x0, symName: __ZNKSt3__117__compressed_pairIPiNS_22__allocator_destructorINS_9allocatorIiEEEEE5firstB8ne180100Ev, symObjAddr: 0x43F0C, symBinAddr: 0x10004944C, symSize: 0x24 }
  - { offset: 0x3710C, size: 0x8, addend: 0x0, symName: __ZNSt3__117__compressed_pairIPiNS_22__allocator_destructorINS_9allocatorIiEEEEE5firstB8ne180100Ev, symObjAddr: 0x43F30, symBinAddr: 0x100049470, symSize: 0x24 }
  - { offset: 0x37135, size: 0x8, addend: 0x0, symName: __ZNSt3__117__compressed_pairIPiNS_22__allocator_destructorINS_9allocatorIiEEEEE5firstB8ne180100Ev, symObjAddr: 0x43F30, symBinAddr: 0x100049470, symSize: 0x24 }
  - { offset: 0x3713D, size: 0x8, addend: 0x0, symName: __ZNSt3__117__compressed_pairIPPiNS_9allocatorIS1_EEE5firstB8ne180100Ev, symObjAddr: 0x43F54, symBinAddr: 0x100049494, symSize: 0x24 }
  - { offset: 0x37166, size: 0x8, addend: 0x0, symName: __ZNSt3__117__compressed_pairIPPiNS_9allocatorIS1_EEE5firstB8ne180100Ev, symObjAddr: 0x43F54, symBinAddr: 0x100049494, symSize: 0x24 }
  - { offset: 0x3716E, size: 0x8, addend: 0x0, symName: __ZNSt3__122__compressed_pair_elemIPPiLi0ELb0EE5__getB8ne180100Ev, symObjAddr: 0x43F78, symBinAddr: 0x1000494B8, symSize: 0x14 }
  - { offset: 0x37197, size: 0x8, addend: 0x0, symName: __ZNSt3__122__compressed_pair_elemIPPiLi0ELb0EE5__getB8ne180100Ev, symObjAddr: 0x43F78, symBinAddr: 0x1000494B8, symSize: 0x14 }
  - { offset: 0x3719F, size: 0x8, addend: 0x0, symName: __ZNSt3__117__compressed_pairIPPiRNS_9allocatorIS1_EEE5firstB8ne180100Ev, symObjAddr: 0x43F8C, symBinAddr: 0x1000494CC, symSize: 0x24 }
  - { offset: 0x371C9, size: 0x8, addend: 0x0, symName: __ZNSt3__117__compressed_pairIPPiRNS_9allocatorIS1_EEE5firstB8ne180100Ev, symObjAddr: 0x43F8C, symBinAddr: 0x1000494CC, symSize: 0x24 }
  - { offset: 0x371D1, size: 0x8, addend: 0x0, symName: __ZNSt3__110unique_ptrIPiNS_22__allocator_destructorINS_9allocatorIiEEEEED2B8ne180100Ev, symObjAddr: 0x43FB0, symBinAddr: 0x1000494F0, symSize: 0x30 }
  - { offset: 0x371FA, size: 0x8, addend: 0x0, symName: __ZNSt3__110unique_ptrIPiNS_22__allocator_destructorINS_9allocatorIiEEEEED2B8ne180100Ev, symObjAddr: 0x43FB0, symBinAddr: 0x1000494F0, symSize: 0x30 }
  - { offset: 0x37202, size: 0x8, addend: 0x0, symName: __ZNSt3__110unique_ptrIPiNS_22__allocator_destructorINS_9allocatorIiEEEEE5resetB8ne180100ES1_, symObjAddr: 0x43FE0, symBinAddr: 0x100049520, symSize: 0xEC }
  - { offset: 0x3722F, size: 0x8, addend: 0x0, symName: __ZNSt3__110unique_ptrIPiNS_22__allocator_destructorINS_9allocatorIiEEEEE5resetB8ne180100ES1_, symObjAddr: 0x43FE0, symBinAddr: 0x100049520, symSize: 0xEC }
  - { offset: 0x37237, size: 0x8, addend: 0x0, symName: __ZNSt3__117__compressed_pairIPiNS_22__allocator_destructorINS_9allocatorIiEEEEE6secondB8ne180100Ev, symObjAddr: 0x440CC, symBinAddr: 0x10004960C, symSize: 0x28 }
  - { offset: 0x37286, size: 0x8, addend: 0x0, symName: __ZNSt3__117__compressed_pairIPiNS_22__allocator_destructorINS_9allocatorIiEEEEE6secondB8ne180100Ev, symObjAddr: 0x440CC, symBinAddr: 0x10004960C, symSize: 0x28 }
  - { offset: 0x3728E, size: 0x8, addend: 0x0, symName: __ZNSt3__122__allocator_destructorINS_9allocatorIiEEEclB8ne180100EPi, symObjAddr: 0x440F4, symBinAddr: 0x100049634, symSize: 0xB8 }
  - { offset: 0x372B7, size: 0x8, addend: 0x0, symName: __ZNSt3__122__allocator_destructorINS_9allocatorIiEEEclB8ne180100EPi, symObjAddr: 0x440F4, symBinAddr: 0x100049634, symSize: 0xB8 }
  - { offset: 0x372BF, size: 0x8, addend: 0x0, symName: __ZNSt3__122__compressed_pair_elemINS_22__allocator_destructorINS_9allocatorIiEEEELi1ELb0EE5__getB8ne180100Ev, symObjAddr: 0x441AC, symBinAddr: 0x1000496EC, symSize: 0x14 }
  - { offset: 0x372FA, size: 0x8, addend: 0x0, symName: __ZNSt3__122__compressed_pair_elemINS_22__allocator_destructorINS_9allocatorIiEEEELi1ELb0EE5__getB8ne180100Ev, symObjAddr: 0x441AC, symBinAddr: 0x1000496EC, symSize: 0x14 }
  - { offset: 0x37302, size: 0x8, addend: 0x0, symName: __ZNSt3__114__split_bufferIPiRNS_9allocatorIS1_EEED2Ev, symObjAddr: 0x441C0, symBinAddr: 0x100049700, symSize: 0xEC }
  - { offset: 0x3732D, size: 0x8, addend: 0x0, symName: __ZNSt3__114__split_bufferIPiRNS_9allocatorIS1_EEED2Ev, symObjAddr: 0x441C0, symBinAddr: 0x100049700, symSize: 0xEC }
  - { offset: 0x37335, size: 0x8, addend: 0x0, symName: __ZNSt3__114__split_bufferIPiRNS_9allocatorIS1_EEE5clearB8ne180100Ev, symObjAddr: 0x442AC, symBinAddr: 0x1000497EC, symSize: 0x68 }
  - { offset: 0x37364, size: 0x8, addend: 0x0, symName: __ZNSt3__114__split_bufferIPiRNS_9allocatorIS1_EEE5clearB8ne180100Ev, symObjAddr: 0x442AC, symBinAddr: 0x1000497EC, symSize: 0x68 }
  - { offset: 0x3736C, size: 0x8, addend: 0x0, symName: __ZNKSt3__114__split_bufferIPiRNS_9allocatorIS1_EEE8capacityB8ne180100Ev, symObjAddr: 0x44314, symBinAddr: 0x100049854, symSize: 0xBC }
  - { offset: 0x37395, size: 0x8, addend: 0x0, symName: __ZNKSt3__114__split_bufferIPiRNS_9allocatorIS1_EEE8capacityB8ne180100Ev, symObjAddr: 0x44314, symBinAddr: 0x100049854, symSize: 0xBC }
  - { offset: 0x3739D, size: 0x8, addend: 0x0, symName: __ZNSt3__114__split_bufferIPiRNS_9allocatorIS1_EEE17__destruct_at_endB8ne180100EPS1_, symObjAddr: 0x443D0, symBinAddr: 0x100049910, symSize: 0x2C }
  - { offset: 0x373C6, size: 0x8, addend: 0x0, symName: __ZNSt3__114__split_bufferIPiRNS_9allocatorIS1_EEE17__destruct_at_endB8ne180100EPS1_, symObjAddr: 0x443D0, symBinAddr: 0x100049910, symSize: 0x2C }
  - { offset: 0x373CE, size: 0x8, addend: 0x0, symName: __ZNSt3__114__split_bufferIPiRNS_9allocatorIS1_EEE17__destruct_at_endB8ne180100EPS1_NS_17integral_constantIbLb0EEE, symObjAddr: 0x443FC, symBinAddr: 0x10004993C, symSize: 0x120 }
  - { offset: 0x37409, size: 0x8, addend: 0x0, symName: __ZNSt3__114__split_bufferIPiRNS_9allocatorIS1_EEE17__destruct_at_endB8ne180100EPS1_NS_17integral_constantIbLb0EEE, symObjAddr: 0x443FC, symBinAddr: 0x10004993C, symSize: 0x120 }
  - { offset: 0x37411, size: 0x8, addend: 0x0, symName: __ZNKSt3__114__split_bufferIPiRNS_9allocatorIS1_EEE9__end_capB8ne180100Ev, symObjAddr: 0x4451C, symBinAddr: 0x100049A5C, symSize: 0x28 }
  - { offset: 0x3745C, size: 0x8, addend: 0x0, symName: __ZNKSt3__114__split_bufferIPiRNS_9allocatorIS1_EEE9__end_capB8ne180100Ev, symObjAddr: 0x4451C, symBinAddr: 0x100049A5C, symSize: 0x28 }
  - { offset: 0x37464, size: 0x8, addend: 0x0, symName: __ZNKSt3__117__compressed_pairIPPiRNS_9allocatorIS1_EEE5firstB8ne180100Ev, symObjAddr: 0x44544, symBinAddr: 0x100049A84, symSize: 0x24 }
  - { offset: 0x3748D, size: 0x8, addend: 0x0, symName: __ZNKSt3__117__compressed_pairIPPiRNS_9allocatorIS1_EEE5firstB8ne180100Ev, symObjAddr: 0x44544, symBinAddr: 0x100049A84, symSize: 0x24 }
  - { offset: 0x37495, size: 0x8, addend: 0x0, symName: __ZNKSt3__114__split_bufferIPiNS_9allocatorIS1_EEE5emptyB8ne180100Ev, symObjAddr: 0x44568, symBinAddr: 0x100049AA8, symSize: 0xB4 }
  - { offset: 0x374BE, size: 0x8, addend: 0x0, symName: __ZNKSt3__114__split_bufferIPiNS_9allocatorIS1_EEE5emptyB8ne180100Ev, symObjAddr: 0x44568, symBinAddr: 0x100049AA8, symSize: 0xB4 }
  - { offset: 0x374C6, size: 0x8, addend: 0x0, symName: __ZNSt3__116__deque_iteratorIiPKiRS1_PKS2_lLl1024EEC1B8ne180100ES5_S2_, symObjAddr: 0x4461C, symBinAddr: 0x100049B5C, symSize: 0x3C }
  - { offset: 0x374EF, size: 0x8, addend: 0x0, symName: __ZNSt3__116__deque_iteratorIiPKiRS1_PKS2_lLl1024EEC1B8ne180100ES5_S2_, symObjAddr: 0x4461C, symBinAddr: 0x100049B5C, symSize: 0x3C }
  - { offset: 0x374F7, size: 0x8, addend: 0x0, symName: __ZNSt3__116__deque_iteratorIiPKiRS1_PKS2_lLl1024EEC2B8ne180100ES5_S2_, symObjAddr: 0x44658, symBinAddr: 0x100049B98, symSize: 0xBC }
  - { offset: 0x3754A, size: 0x8, addend: 0x0, symName: __ZNSt3__116__deque_iteratorIiPKiRS1_PKS2_lLl1024EEC2B8ne180100ES5_S2_, symObjAddr: 0x44658, symBinAddr: 0x100049B98, symSize: 0xBC }
  - { offset: 0x37552, size: 0x8, addend: 0x0, symName: __ZNSt3__1eqB8ne180100ERKNS_16__deque_iteratorIiPKiRS1_PKS2_lLl1024EEES8_, symObjAddr: 0x44714, symBinAddr: 0x100049C54, symSize: 0xC0 }
  - { offset: 0x375A5, size: 0x8, addend: 0x0, symName: __ZNSt3__116__deque_iteratorIiPKiRS1_PKS2_lLl1024EEppB8ne180100Ev, symObjAddr: 0x447D4, symBinAddr: 0x100049D14, symSize: 0x1F8 }
  - { offset: 0x375AD, size: 0x8, addend: 0x0, symName: __ZNKSt3__15dequeIiNS_9allocatorIiEEE6__sizeB8ne180100Ev, symObjAddr: 0x449CC, symBinAddr: 0x100049F0C, symSize: 0x28 }
  - { offset: 0x375D6, size: 0x8, addend: 0x0, symName: __ZNKSt3__15dequeIiNS_9allocatorIiEEE6__sizeB8ne180100Ev, symObjAddr: 0x449CC, symBinAddr: 0x100049F0C, symSize: 0x28 }
  - { offset: 0x375DE, size: 0x8, addend: 0x0, symName: __ZNKSt3__117__compressed_pairImNS_9allocatorIiEEE5firstB8ne180100Ev, symObjAddr: 0x449F4, symBinAddr: 0x100049F34, symSize: 0x24 }
  - { offset: 0x37607, size: 0x8, addend: 0x0, symName: __ZNKSt3__117__compressed_pairImNS_9allocatorIiEEE5firstB8ne180100Ev, symObjAddr: 0x449F4, symBinAddr: 0x100049F34, symSize: 0x24 }
  - { offset: 0x3760F, size: 0x8, addend: 0x0, symName: __ZNKSt3__122__compressed_pair_elemImLi0ELb0EE5__getB8ne180100Ev, symObjAddr: 0x44A18, symBinAddr: 0x100049F58, symSize: 0x14 }
  - { offset: 0x37638, size: 0x8, addend: 0x0, symName: __ZNKSt3__122__compressed_pair_elemImLi0ELb0EE5__getB8ne180100Ev, symObjAddr: 0x44A18, symBinAddr: 0x100049F58, symSize: 0x14 }
  - { offset: 0x37640, size: 0x8, addend: 0x0, symName: __ZNSt3__15dequeIiNS_9allocatorIiEEEC2ERKS3_, symObjAddr: 0x44A2C, symBinAddr: 0x100049F6C, symSize: 0x59C }
  - { offset: 0x3766B, size: 0x8, addend: 0x0, symName: __ZNSt3__15dequeIiNS_9allocatorIiEEEC2ERKS3_, symObjAddr: 0x44A2C, symBinAddr: 0x100049F6C, symSize: 0x59C }
  - { offset: 0x37673, size: 0x8, addend: 0x0, symName: __ZNKSt3__15dequeIiNS_9allocatorIiEEE7__allocB8ne180100Ev, symObjAddr: 0x44FC8, symBinAddr: 0x10004A508, symSize: 0x28 }
  - { offset: 0x376B7, size: 0x8, addend: 0x0, symName: __ZNKSt3__15dequeIiNS_9allocatorIiEEE7__allocB8ne180100Ev, symObjAddr: 0x44FC8, symBinAddr: 0x10004A508, symSize: 0x28 }
  - { offset: 0x376BF, size: 0x8, addend: 0x0, symName: __ZNSt3__19allocatorIPiEC1B8ne180100IiEERKNS0_IT_EE, symObjAddr: 0x44FF0, symBinAddr: 0x10004A530, symSize: 0x34 }
  - { offset: 0x376E8, size: 0x8, addend: 0x0, symName: __ZNSt3__19allocatorIPiEC1B8ne180100IiEERKNS0_IT_EE, symObjAddr: 0x44FF0, symBinAddr: 0x10004A530, symSize: 0x34 }
  - { offset: 0x376F0, size: 0x8, addend: 0x0, symName: __ZNSt3__114__split_bufferIPiNS_9allocatorIS1_EEEC1B8ne180100ERKS3_, symObjAddr: 0x45024, symBinAddr: 0x10004A564, symSize: 0x34 }
  - { offset: 0x37738, size: 0x8, addend: 0x0, symName: __ZNSt3__114__split_bufferIPiNS_9allocatorIS1_EEEC1B8ne180100ERKS3_, symObjAddr: 0x45024, symBinAddr: 0x10004A564, symSize: 0x34 }
  - { offset: 0x37740, size: 0x8, addend: 0x0, symName: __ZNSt3__117__compressed_pairImNS_9allocatorIiEEEC1B8ne180100IiRNS1_IPiEEEEOT_OT0_, symObjAddr: 0x45058, symBinAddr: 0x10004A598, symSize: 0x3C }
  - { offset: 0x3777F, size: 0x8, addend: 0x0, symName: __ZNSt3__117__compressed_pairImNS_9allocatorIiEEEC1B8ne180100IiRNS1_IPiEEEEOT_OT0_, symObjAddr: 0x45058, symBinAddr: 0x10004A598, symSize: 0x3C }
  - { offset: 0x37787, size: 0x8, addend: 0x0, symName: __ZNSt3__15dequeIiNS_9allocatorIiEEE8__appendINS_16__deque_iteratorIiPKiRS6_PKS7_lLl1024EEELi0EEEvT_SC_, symObjAddr: 0x45094, symBinAddr: 0x10004A5D4, symSize: 0x3D8 }
  - { offset: 0x377F2, size: 0x8, addend: 0x0, symName: __ZNSt3__15dequeIiNS_9allocatorIiEEE8__appendINS_16__deque_iteratorIiPKiRS6_PKS7_lLl1024EEELi0EEEvT_SC_, symObjAddr: 0x45094, symBinAddr: 0x10004A5D4, symSize: 0x3D8 }
  - { offset: 0x377FA, size: 0x8, addend: 0x0, symName: __ZNKSt3__117__compressed_pairImNS_9allocatorIiEEE6secondB8ne180100Ev, symObjAddr: 0x4546C, symBinAddr: 0x10004A9AC, symSize: 0x24 }
  - { offset: 0x3786B, size: 0x8, addend: 0x0, symName: __ZNKSt3__117__compressed_pairImNS_9allocatorIiEEE6secondB8ne180100Ev, symObjAddr: 0x4546C, symBinAddr: 0x10004A9AC, symSize: 0x24 }
  - { offset: 0x37873, size: 0x8, addend: 0x0, symName: __ZNSt3__19allocatorIPiEC2B8ne180100IiEERKNS0_IT_EE, symObjAddr: 0x45490, symBinAddr: 0x10004A9D0, symSize: 0x30 }
  - { offset: 0x3789C, size: 0x8, addend: 0x0, symName: __ZNSt3__19allocatorIPiEC2B8ne180100IiEERKNS0_IT_EE, symObjAddr: 0x45490, symBinAddr: 0x10004A9D0, symSize: 0x30 }
  - { offset: 0x378A4, size: 0x8, addend: 0x0, symName: __ZNSt3__114__split_bufferIPiNS_9allocatorIS1_EEEC2B8ne180100ERKS3_, symObjAddr: 0x454C0, symBinAddr: 0x10004AA00, symSize: 0x2C0 }
  - { offset: 0x378EC, size: 0x8, addend: 0x0, symName: __ZNSt3__114__split_bufferIPiNS_9allocatorIS1_EEEC2B8ne180100ERKS3_, symObjAddr: 0x454C0, symBinAddr: 0x10004AA00, symSize: 0x2C0 }
  - { offset: 0x378F4, size: 0x8, addend: 0x0, symName: __ZNSt3__117__compressed_pairIPPiNS_9allocatorIS1_EEEC1B8ne180100IDnRKS4_EEOT_OT0_, symObjAddr: 0x45780, symBinAddr: 0x10004ACC0, symSize: 0x3C }
  - { offset: 0x37935, size: 0x8, addend: 0x0, symName: __ZNSt3__117__compressed_pairIPPiNS_9allocatorIS1_EEEC1B8ne180100IDnRKS4_EEOT_OT0_, symObjAddr: 0x45780, symBinAddr: 0x10004ACC0, symSize: 0x3C }
  - { offset: 0x3793D, size: 0x8, addend: 0x0, symName: __ZNSt3__117__compressed_pairIPPiNS_9allocatorIS1_EEEC2B8ne180100IDnRKS4_EEOT_OT0_, symObjAddr: 0x457BC, symBinAddr: 0x10004ACFC, symSize: 0x44 }
  - { offset: 0x379A8, size: 0x8, addend: 0x0, symName: __ZNSt3__117__compressed_pairIPPiNS_9allocatorIS1_EEEC2B8ne180100IDnRKS4_EEOT_OT0_, symObjAddr: 0x457BC, symBinAddr: 0x10004ACFC, symSize: 0x44 }
  - { offset: 0x379B0, size: 0x8, addend: 0x0, symName: __ZNSt3__122__compressed_pair_elemINS_9allocatorIPiEELi1ELb1EEC2B8ne180100IRKS3_vEEOT_, symObjAddr: 0x45800, symBinAddr: 0x10004AD40, symSize: 0x18 }
  - { offset: 0x37A1B, size: 0x8, addend: 0x0, symName: __ZNSt3__122__compressed_pair_elemINS_9allocatorIPiEELi1ELb1EEC2B8ne180100IRKS3_vEEOT_, symObjAddr: 0x45800, symBinAddr: 0x10004AD40, symSize: 0x18 }
  - { offset: 0x37A23, size: 0x8, addend: 0x0, symName: __ZNSt3__117__compressed_pairImNS_9allocatorIiEEEC2B8ne180100IiRNS1_IPiEEEEOT_OT0_, symObjAddr: 0x45818, symBinAddr: 0x10004AD58, symSize: 0x44 }
  - { offset: 0x37A71, size: 0x8, addend: 0x0, symName: __ZNSt3__117__compressed_pairImNS_9allocatorIiEEEC2B8ne180100IiRNS1_IPiEEEEOT_OT0_, symObjAddr: 0x45818, symBinAddr: 0x10004AD58, symSize: 0x44 }
  - { offset: 0x37A79, size: 0x8, addend: 0x0, symName: __ZNSt3__122__compressed_pair_elemINS_9allocatorIiEELi1ELb1EEC2B8ne180100IRNS1_IPiEEvEEOT_, symObjAddr: 0x4585C, symBinAddr: 0x10004AD9C, symSize: 0x34 }
  - { offset: 0x37AE4, size: 0x8, addend: 0x0, symName: __ZNSt3__122__compressed_pair_elemINS_9allocatorIiEELi1ELb1EEC2B8ne180100IRNS1_IPiEEvEEOT_, symObjAddr: 0x4585C, symBinAddr: 0x10004AD9C, symSize: 0x34 }
  - { offset: 0x37AEC, size: 0x8, addend: 0x0, symName: __ZNSt3__19allocatorIiEC2B8ne180100IPiEERKNS0_IT_EE, symObjAddr: 0x45890, symBinAddr: 0x10004ADD0, symSize: 0x30 }
  - { offset: 0x37B39, size: 0x8, addend: 0x0, symName: __ZNSt3__19allocatorIiEC2B8ne180100IPiEERKNS0_IT_EE, symObjAddr: 0x45890, symBinAddr: 0x10004ADD0, symSize: 0x30 }
  - { offset: 0x37B41, size: 0x8, addend: 0x0, symName: __ZNSt3__15dequeIiNS_9allocatorIiEEE18__append_with_sizeB8ne180100INS_16__deque_iteratorIiPKiRS6_PKS7_lLl1024EEEEEvT_m, symObjAddr: 0x458C0, symBinAddr: 0x10004AE00, symSize: 0x8CC }
  - { offset: 0x37B89, size: 0x8, addend: 0x0, symName: __ZNSt3__15dequeIiNS_9allocatorIiEEE18__append_with_sizeB8ne180100INS_16__deque_iteratorIiPKiRS6_PKS7_lLl1024EEEEEvT_m, symObjAddr: 0x458C0, symBinAddr: 0x10004AE00, symSize: 0x8CC }
  - { offset: 0x37B91, size: 0x8, addend: 0x0, symName: __ZNSt3__18distanceB8ne180100INS_16__deque_iteratorIiPKiRS2_PKS3_lLl1024EEEEENS_15iterator_traitsIT_E15difference_typeES9_S9_, symObjAddr: 0x4618C, symBinAddr: 0x10004B6CC, symSize: 0x354 }
  - { offset: 0x37CAC, size: 0x8, addend: 0x0, symName: __ZNSt3__15dequeIiNS_9allocatorIiEEE19__add_back_capacityEm, symObjAddr: 0x464E0, symBinAddr: 0x10004BA20, symSize: 0x14C8 }
  - { offset: 0x37CB4, size: 0x8, addend: 0x0, symName: __ZNKSt3__116__deque_iteratorIiPiRiPS1_lLl1024EEplB8ne180100El, symObjAddr: 0x479A8, symBinAddr: 0x10004CEE8, symSize: 0x210 }
  - { offset: 0x37DE3, size: 0x8, addend: 0x0, symName: __ZNKSt3__116__deque_iteratorIiPiRiPS1_lLl1024EEplB8ne180100El, symObjAddr: 0x479A8, symBinAddr: 0x10004CEE8, symSize: 0x210 }
  - { offset: 0x37DEB, size: 0x8, addend: 0x0, symName: __ZNSt3__15dequeIiNS_9allocatorIiEEE13__deque_rangeC1B8ne180100ENS_16__deque_iteratorIiPiRiPS6_lLl1024EEES9_, symObjAddr: 0x47BB8, symBinAddr: 0x10004D0F8, symSize: 0x300 }
  - { offset: 0x37E7F, size: 0x8, addend: 0x0, symName: __ZNSt3__15dequeIiNS_9allocatorIiEEE13__deque_rangeC1B8ne180100ENS_16__deque_iteratorIiPiRiPS6_lLl1024EEES9_, symObjAddr: 0x47BB8, symBinAddr: 0x10004D0F8, symSize: 0x300 }
  - { offset: 0x37E87, size: 0x8, addend: 0x0, symName: __ZNKSt3__15dequeIiNS_9allocatorIiEEE13__deque_range5beginB8ne180100Ev, symObjAddr: 0x47EB8, symBinAddr: 0x10004D3F8, symSize: 0x34 }
  - { offset: 0x37EE3, size: 0x8, addend: 0x0, symName: __ZNKSt3__15dequeIiNS_9allocatorIiEEE13__deque_range5beginB8ne180100Ev, symObjAddr: 0x47EB8, symBinAddr: 0x10004D3F8, symSize: 0x34 }
  - { offset: 0x37EEB, size: 0x8, addend: 0x0, symName: __ZNKSt3__15dequeIiNS_9allocatorIiEEE13__deque_range3endB8ne180100Ev, symObjAddr: 0x47EEC, symBinAddr: 0x10004D42C, symSize: 0x28C }
  - { offset: 0x37F14, size: 0x8, addend: 0x0, symName: __ZNKSt3__15dequeIiNS_9allocatorIiEEE13__deque_range3endB8ne180100Ev, symObjAddr: 0x47EEC, symBinAddr: 0x10004D42C, symSize: 0x28C }
  - { offset: 0x37F1C, size: 0x8, addend: 0x0, symName: __ZNSt3__1neB8ne180100ERKNS_5dequeIiNS_9allocatorIiEEE13__deque_rangeES6_, symObjAddr: 0x48178, symBinAddr: 0x10004D6B8, symSize: 0x34 }
  - { offset: 0x37F46, size: 0x8, addend: 0x0, symName: __ZNKSt3__15dequeIiNS_9allocatorIiEEE13__deque_rangedeB8ne180100Ev, symObjAddr: 0x481AC, symBinAddr: 0x10004D6EC, symSize: 0x3C4 }
  - { offset: 0x37F4E, size: 0x8, addend: 0x0, symName: __ZNSt3__15dequeIiNS_9allocatorIiEEE21_ConstructTransactionC1B8ne180100EPS3_RNS3_19__deque_block_rangeE, symObjAddr: 0x48570, symBinAddr: 0x10004DAB0, symSize: 0x3C }
  - { offset: 0x37F9C, size: 0x8, addend: 0x0, symName: __ZNSt3__15dequeIiNS_9allocatorIiEEE21_ConstructTransactionC1B8ne180100EPS3_RNS3_19__deque_block_rangeE, symObjAddr: 0x48570, symBinAddr: 0x10004DAB0, symSize: 0x3C }
  - { offset: 0x37FA4, size: 0x8, addend: 0x0, symName: __ZNSt3__15dequeIiNS_9allocatorIiEEE21_ConstructTransactionD1B8ne180100Ev, symObjAddr: 0x485AC, symBinAddr: 0x10004DAEC, symSize: 0x2C }
  - { offset: 0x37FF7, size: 0x8, addend: 0x0, symName: __ZNSt3__15dequeIiNS_9allocatorIiEEE21_ConstructTransactionD1B8ne180100Ev, symObjAddr: 0x485AC, symBinAddr: 0x10004DAEC, symSize: 0x2C }
  - { offset: 0x37FFF, size: 0x8, addend: 0x0, symName: __ZNSt3__15dequeIiNS_9allocatorIiEEE13__deque_rangeppB8ne180100Ev, symObjAddr: 0x485D8, symBinAddr: 0x10004DB18, symSize: 0x1C0 }
  - { offset: 0x3802C, size: 0x8, addend: 0x0, symName: __ZNSt3__15dequeIiNS_9allocatorIiEEE13__deque_rangeppB8ne180100Ev, symObjAddr: 0x485D8, symBinAddr: 0x10004DB18, symSize: 0x1C0 }
  - { offset: 0x38034, size: 0x8, addend: 0x0, symName: __ZNSt3__15dequeIiNS_9allocatorIiEEE18__recommend_blocksB8ne180100Em, symObjAddr: 0x48798, symBinAddr: 0x10004DCD8, symSize: 0x40 }
  - { offset: 0x3805D, size: 0x8, addend: 0x0, symName: __ZNSt3__15dequeIiNS_9allocatorIiEEE18__recommend_blocksB8ne180100Em, symObjAddr: 0x48798, symBinAddr: 0x10004DCD8, symSize: 0x40 }
  - { offset: 0x38065, size: 0x8, addend: 0x0, symName: __ZNSt3__114__split_bufferIPiRNS_9allocatorIS1_EEE4backB8ne180100Ev, symObjAddr: 0x487D8, symBinAddr: 0x10004DD18, symSize: 0x68 }
  - { offset: 0x3808D, size: 0x8, addend: 0x0, symName: __ZNSt3__114__split_bufferIPiRNS_9allocatorIS1_EEE4backB8ne180100Ev, symObjAddr: 0x487D8, symBinAddr: 0x10004DD18, symSize: 0x68 }
  - { offset: 0x38095, size: 0x8, addend: 0x0, symName: __ZNSt3__114__split_bufferIPiRNS_9allocatorIS1_EEE5beginB8ne180100Ev, symObjAddr: 0x48840, symBinAddr: 0x10004DD80, symSize: 0x64 }
  - { offset: 0x380BE, size: 0x8, addend: 0x0, symName: __ZNSt3__114__split_bufferIPiRNS_9allocatorIS1_EEE5beginB8ne180100Ev, symObjAddr: 0x48840, symBinAddr: 0x10004DD80, symSize: 0x64 }
  - { offset: 0x380C6, size: 0x8, addend: 0x0, symName: __ZNSt3__114__split_bufferIPiRNS_9allocatorIS1_EEE3endB8ne180100Ev, symObjAddr: 0x488A4, symBinAddr: 0x10004DDE4, symSize: 0x64 }
  - { offset: 0x380EF, size: 0x8, addend: 0x0, symName: __ZNSt3__114__split_bufferIPiRNS_9allocatorIS1_EEE3endB8ne180100Ev, symObjAddr: 0x488A4, symBinAddr: 0x10004DDE4, symSize: 0x64 }
  - { offset: 0x380F7, size: 0x8, addend: 0x0, symName: __ZNSt3__114__split_bufferIPiRNS_9allocatorIS1_EEE9push_backB8ne180100ERKS1_, symObjAddr: 0x48908, symBinAddr: 0x10004DE48, symSize: 0xAFC }
  - { offset: 0x38120, size: 0x8, addend: 0x0, symName: __ZNSt3__114__split_bufferIPiRNS_9allocatorIS1_EEE9push_backB8ne180100ERKS1_, symObjAddr: 0x48908, symBinAddr: 0x10004DE48, symSize: 0xAFC }
  - { offset: 0x38128, size: 0x8, addend: 0x0, symName: __ZNSt3__116__deque_iteratorIiPiRiPS1_lLl1024EEpLB8ne180100El, symObjAddr: 0x49404, symBinAddr: 0x10004E944, symSize: 0x390 }
  - { offset: 0x381BE, size: 0x8, addend: 0x0, symName: __ZNSt3__116__deque_iteratorIiPiRiPS1_lLl1024EEpLB8ne180100El, symObjAddr: 0x49404, symBinAddr: 0x10004E944, symSize: 0x390 }
  - { offset: 0x381C6, size: 0x8, addend: 0x0, symName: __ZNSt3__15dequeIiNS_9allocatorIiEEE13__deque_rangeC2B8ne180100ENS_16__deque_iteratorIiPiRiPS6_lLl1024EEES9_, symObjAddr: 0x49794, symBinAddr: 0x10004ECD4, symSize: 0x294 }
  - { offset: 0x38227, size: 0x8, addend: 0x0, symName: __ZNSt3__15dequeIiNS_9allocatorIiEEE13__deque_rangeC2B8ne180100ENS_16__deque_iteratorIiPiRiPS6_lLl1024EEES9_, symObjAddr: 0x49794, symBinAddr: 0x10004ECD4, symSize: 0x294 }
  - { offset: 0x3822F, size: 0x8, addend: 0x0, symName: __ZNSt3__1eqB8ne180100ERKNS_5dequeIiNS_9allocatorIiEEE13__deque_rangeES6_, symObjAddr: 0x49A28, symBinAddr: 0x10004EF68, symSize: 0x30 }
  - { offset: 0x3828B, size: 0x8, addend: 0x0, symName: __ZNSt3__15dequeIiNS_9allocatorIiEEE19__deque_block_rangeC1B8ne180100EPiS5_, symObjAddr: 0x49B18, symBinAddr: 0x10004F058, symSize: 0x3C }
  - { offset: 0x38293, size: 0x8, addend: 0x0, symName: __ZNSt3__15dequeIiNS_9allocatorIiEEE19__deque_block_rangeC2B8ne180100EPiS5_, symObjAddr: 0x49B54, symBinAddr: 0x10004F094, symSize: 0xBC }
  - { offset: 0x382E6, size: 0x8, addend: 0x0, symName: __ZNSt3__15dequeIiNS_9allocatorIiEEE19__deque_block_rangeC2B8ne180100EPiS5_, symObjAddr: 0x49B54, symBinAddr: 0x10004F094, symSize: 0xBC }
  - { offset: 0x382EE, size: 0x8, addend: 0x0, symName: __ZNSt3__15dequeIiNS_9allocatorIiEEE21_ConstructTransactionC2B8ne180100EPS3_RNS3_19__deque_block_rangeE, symObjAddr: 0x49C10, symBinAddr: 0x10004F150, symSize: 0x204 }
  - { offset: 0x38341, size: 0x8, addend: 0x0, symName: __ZNSt3__15dequeIiNS_9allocatorIiEEE21_ConstructTransactionC2B8ne180100EPS3_RNS3_19__deque_block_rangeE, symObjAddr: 0x49C10, symBinAddr: 0x10004F150, symSize: 0x204 }
  - { offset: 0x38349, size: 0x8, addend: 0x0, symName: __ZNSt3__15dequeIiNS_9allocatorIiEEE21_ConstructTransactionD2B8ne180100Ev, symObjAddr: 0x49E14, symBinAddr: 0x10004F354, symSize: 0x138 }
  - { offset: 0x3839C, size: 0x8, addend: 0x0, symName: __ZNSt3__15dequeIiNS_9allocatorIiEEE21_ConstructTransactionD2B8ne180100Ev, symObjAddr: 0x49E14, symBinAddr: 0x10004F354, symSize: 0x138 }
  - { offset: 0x383A4, size: 0x8, addend: 0x0, symName: __ZNSt3__110__distanceB8ne180100INS_16__deque_iteratorIiPKiRS2_PKS3_lLl1024EEEEENS_15iterator_traitsIT_E15difference_typeES9_S9_NS_26random_access_iterator_tagE, symObjAddr: 0x49F4C, symBinAddr: 0x10004F48C, symSize: 0x268 }
  - { offset: 0x383D1, size: 0x8, addend: 0x0, symName: __ZNSt3__15dequeIiNS_9allocatorIiEEE19__copy_assign_allocB8ne180100ERKS3_, symObjAddr: 0x4A440, symBinAddr: 0x10004F980, symSize: 0x2C }
  - { offset: 0x383D9, size: 0x8, addend: 0x0, symName: __ZNSt3__15dequeIiNS_9allocatorIiEEE6assignINS_16__deque_iteratorIiPKiRS6_PKS7_lLl1024EEELi0EEEvT_SC_, symObjAddr: 0x4A46C, symBinAddr: 0x10004F9AC, symSize: 0x2F4 }
  - { offset: 0x38415, size: 0x8, addend: 0x0, symName: __ZNSt3__15dequeIiNS_9allocatorIiEEE6assignINS_16__deque_iteratorIiPKiRS6_PKS7_lLl1024EEELi0EEEvT_SC_, symObjAddr: 0x4A46C, symBinAddr: 0x10004F9AC, symSize: 0x2F4 }
  - { offset: 0x3841D, size: 0x8, addend: 0x0, symName: __ZNSt3__15dequeIiNS_9allocatorIiEEE19__copy_assign_allocB8ne180100ERKS3_NS_17integral_constantIbLb0EEE, symObjAddr: 0x4A760, symBinAddr: 0x10004FCA0, symSize: 0x14 }
  - { offset: 0x3848E, size: 0x8, addend: 0x0, symName: __ZNSt3__15dequeIiNS_9allocatorIiEEE19__copy_assign_allocB8ne180100ERKS3_NS_17integral_constantIbLb0EEE, symObjAddr: 0x4A760, symBinAddr: 0x10004FCA0, symSize: 0x14 }
  - { offset: 0x38496, size: 0x8, addend: 0x0, symName: __ZNSt3__15dequeIiNS_9allocatorIiEEE32__assign_with_size_random_accessB8ne180100INS_16__deque_iteratorIiPKiRS6_PKS7_lLl1024EEEEEvT_l, symObjAddr: 0x4A774, symBinAddr: 0x10004FCB4, symSize: 0x6C4 }
  - { offset: 0x384DE, size: 0x8, addend: 0x0, symName: __ZNSt3__15dequeIiNS_9allocatorIiEEE32__assign_with_size_random_accessB8ne180100INS_16__deque_iteratorIiPKiRS6_PKS7_lLl1024EEEEEvT_l, symObjAddr: 0x4A774, symBinAddr: 0x10004FCB4, symSize: 0x6C4 }
  - { offset: 0x384E6, size: 0x8, addend: 0x0, symName: __ZNKSt3__116__deque_iteratorIiPKiRS1_PKS2_lLl1024EEplB8ne180100El, symObjAddr: 0x4AE38, symBinAddr: 0x100050378, symSize: 0x210 }
  - { offset: 0x38567, size: 0x8, addend: 0x0, symName: __ZNKSt3__116__deque_iteratorIiPKiRS1_PKS2_lLl1024EEplB8ne180100El, symObjAddr: 0x4AE38, symBinAddr: 0x100050378, symSize: 0x210 }
  - { offset: 0x3856F, size: 0x8, addend: 0x0, symName: __ZNSt3__14copyB8ne180100INS_16__deque_iteratorIiPKiRS2_PKS3_lLl1024EEENS1_IiPiRiPS8_lLl1024EEEEET0_T_SD_SC_, symObjAddr: 0x4B048, symBinAddr: 0x100050588, symSize: 0x4B0 }
  - { offset: 0x385C4, size: 0x8, addend: 0x0, symName: __ZNSt3__15dequeIiNS_9allocatorIiEEE14__erase_to_endENS_16__deque_iteratorIiPKiRS5_PKS6_lLl1024EEE, symObjAddr: 0x4B4F8, symBinAddr: 0x100050A38, symSize: 0x588 }
  - { offset: 0x385CC, size: 0x8, addend: 0x0, symName: __ZNSt3__16copy_nB8ne180100INS_16__deque_iteratorIiPKiRS2_PKS3_lLl1024EEElNS1_IiPiRiPS8_lLl1024EEELi0EEET1_T_T0_SC_, symObjAddr: 0x4BA80, symBinAddr: 0x100050FC0, symSize: 0x484 }
  - { offset: 0x386DB, size: 0x8, addend: 0x0, symName: __ZNSt3__116__deque_iteratorIiPKiRS1_PKS2_lLl1024EEC1B8ne180100IPiRiPS8_Li0EEERKNS0_IiT_T0_T1_lLl1024EEE, symObjAddr: 0x4BF04, symBinAddr: 0x100051444, symSize: 0x34 }
  - { offset: 0x386E3, size: 0x8, addend: 0x0, symName: __ZNSt3__116__deque_iteratorIiPKiRS1_PKS2_lLl1024EEpLB8ne180100El, symObjAddr: 0x4BF38, symBinAddr: 0x100051478, symSize: 0x390 }
  - { offset: 0x38754, size: 0x8, addend: 0x0, symName: __ZNSt3__116__deque_iteratorIiPKiRS1_PKS2_lLl1024EEpLB8ne180100El, symObjAddr: 0x4BF38, symBinAddr: 0x100051478, symSize: 0x390 }
  - { offset: 0x3875C, size: 0x8, addend: 0x0, symName: __ZNSt3__16__copyB8ne180100INS_17_ClassicAlgPolicyENS_16__deque_iteratorIiPKiRS3_PKS4_lLl1024EEES8_NS2_IiPiRiPS9_lLl1024EEEEENS_4pairIT0_T2_EESE_T1_SF_, symObjAddr: 0x4C2C8, symBinAddr: 0x100051808, symSize: 0x41C }
  - { offset: 0x38805, size: 0x8, addend: 0x0, symName: __ZNKSt3__111__copy_loopINS_17_ClassicAlgPolicyEEclB8ne180100INS_16__deque_iteratorIiPKiRS5_PKS6_lLl1024EEENS4_IiPiRiPSB_lLl1024EEELi0EEENS_4pairIT_T0_EESG_SG_SH_, symObjAddr: 0x4D7C0, symBinAddr: 0x100052D00, symSize: 0x438 }
  - { offset: 0x3880D, size: 0x8, addend: 0x0, symName: __ZNSt3__113__unwrap_iterB8ne180100INS_16__deque_iteratorIiPiRiPS2_lLl1024EEENS_18__unwrap_iter_implIS5_Lb0EEELi0EEEDTclsrT0_8__unwrapclsr3stdE7declvalIT_EEEES9_, symObjAddr: 0x4DBF8, symBinAddr: 0x100053138, symSize: 0x2DC }
  - { offset: 0x388CA, size: 0x8, addend: 0x0, symName: __ZNSt3__14pairINS_16__deque_iteratorIiPKiRS2_PKS3_lLl1024EEES7_EC1B8ne180100ERKS7_SA_, symObjAddr: 0x4EA4C, symBinAddr: 0x100053F8C, symSize: 0x3C }
  - { offset: 0x388D2, size: 0x8, addend: 0x0, symName: __ZNSt3__14pairINS_16__deque_iteratorIiPKiRS2_PKS3_lLl1024EEES7_EC2B8ne180100ERKS7_SA_, symObjAddr: 0x4EA88, symBinAddr: 0x100053FC8, symSize: 0x54 }
  - { offset: 0x38923, size: 0x8, addend: 0x0, symName: __ZNSt3__14pairINS_16__deque_iteratorIiPKiRS2_PKS3_lLl1024EEES7_EC2B8ne180100ERKS7_SA_, symObjAddr: 0x4EA88, symBinAddr: 0x100053FC8, symSize: 0x54 }
  - { offset: 0x3892B, size: 0x8, addend: 0x0, symName: __ZNSt3__118__unwrap_iter_implINS_16__deque_iteratorIiPKiRS2_PKS3_lLl1024EEELb0EE8__unwrapB8ne180100ES7_, symObjAddr: 0x4EADC, symBinAddr: 0x10005401C, symSize: 0x264 }
  - { offset: 0x3897C, size: 0x8, addend: 0x0, symName: __ZNSt3__118__unwrap_iter_implINS_16__deque_iteratorIiPKiRS2_PKS3_lLl1024EEELb0EE8__unwrapB8ne180100ES7_, symObjAddr: 0x4EADC, symBinAddr: 0x10005401C, symSize: 0x264 }
  - { offset: 0x38984, size: 0x8, addend: 0x0, symName: __ZNSt3__118__for_each_segmentB8ne180100INS_16__deque_iteratorIiPKiRS2_PKS3_lLl1024EEENS_11__copy_loopINS_17_ClassicAlgPolicyEE12_CopySegmentIS7_NS1_IiPiRiPSC_lLl1024EEEEEEEvT_SH_T0_, symObjAddr: 0x4ED40, symBinAddr: 0x100054280, symSize: 0x5E8 }
  - { offset: 0x389AE, size: 0x8, addend: 0x0, symName: __ZNSt3__111__copy_loopINS_17_ClassicAlgPolicyEE12_CopySegmentINS_16__deque_iteratorIiPKiRS5_PKS6_lLl1024EEENS4_IiPiRiPSB_lLl1024EEEEC1B8ne180100ERSE_, symObjAddr: 0x4F328, symBinAddr: 0x100054868, symSize: 0x34 }
  - { offset: 0x389B6, size: 0x8, addend: 0x0, symName: __ZNSt3__19make_pairB8ne180100IRNS_16__deque_iteratorIiPKiRS2_PKS3_lLl1024EEENS1_IiPiRiPS9_lLl1024EEEEENS_4pairINS_18__unwrap_ref_decayIT_E4typeENSE_IT0_E4typeEEEOSF_OSI_, symObjAddr: 0x4F35C, symBinAddr: 0x10005489C, symSize: 0x38 }
  - { offset: 0x389F5, size: 0x8, addend: 0x0, symName: __ZNSt3__127__segmented_iterator_traitsINS_16__deque_iteratorIiPKiRS2_PKS3_lLl1024EEEE9__segmentB8ne180100ES7_, symObjAddr: 0x4F394, symBinAddr: 0x1000548D4, symSize: 0x224 }
  - { offset: 0x389FD, size: 0x8, addend: 0x0, symName: __ZNSt3__111__copy_loopINS_17_ClassicAlgPolicyEE12_CopySegmentINS_16__deque_iteratorIiPKiRS5_PKS6_lLl1024EEENS4_IiPiRiPSB_lLl1024EEEEclB8ne180100ES6_S6_, symObjAddr: 0x4F5B8, symBinAddr: 0x100054AF8, symSize: 0x2F8 }
  - { offset: 0x38A28, size: 0x8, addend: 0x0, symName: __ZNSt3__111__copy_loopINS_17_ClassicAlgPolicyEE12_CopySegmentINS_16__deque_iteratorIiPKiRS5_PKS6_lLl1024EEENS4_IiPiRiPSB_lLl1024EEEEclB8ne180100ES6_S6_, symObjAddr: 0x4F5B8, symBinAddr: 0x100054AF8, symSize: 0x2F8 }
  - { offset: 0x38A30, size: 0x8, addend: 0x0, symName: __ZNSt3__127__segmented_iterator_traitsINS_16__deque_iteratorIiPKiRS2_PKS3_lLl1024EEEE7__localB8ne180100ES7_, symObjAddr: 0x4F8B0, symBinAddr: 0x100054DF0, symSize: 0x228 }
  - { offset: 0x38A80, size: 0x8, addend: 0x0, symName: __ZNSt3__127__segmented_iterator_traitsINS_16__deque_iteratorIiPKiRS2_PKS3_lLl1024EEEE7__localB8ne180100ES7_, symObjAddr: 0x4F8B0, symBinAddr: 0x100054DF0, symSize: 0x228 }
  - { offset: 0x38A88, size: 0x8, addend: 0x0, symName: __ZNSt3__127__segmented_iterator_traitsINS_16__deque_iteratorIiPKiRS2_PKS3_lLl1024EEEE5__endB8ne180100ES6_, symObjAddr: 0x4FAD8, symBinAddr: 0x100055018, symSize: 0x64 }
  - { offset: 0x38AB3, size: 0x8, addend: 0x0, symName: __ZNSt3__127__segmented_iterator_traitsINS_16__deque_iteratorIiPKiRS2_PKS3_lLl1024EEEE5__endB8ne180100ES6_, symObjAddr: 0x4FAD8, symBinAddr: 0x100055018, symSize: 0x64 }
  - { offset: 0x38ABB, size: 0x8, addend: 0x0, symName: __ZNSt3__127__segmented_iterator_traitsINS_16__deque_iteratorIiPKiRS2_PKS3_lLl1024EEEE7__beginB8ne180100ES6_, symObjAddr: 0x4FB3C, symBinAddr: 0x10005507C, symSize: 0x60 }
  - { offset: 0x38AE2, size: 0x8, addend: 0x0, symName: __ZNSt3__127__segmented_iterator_traitsINS_16__deque_iteratorIiPKiRS2_PKS3_lLl1024EEEE7__beginB8ne180100ES6_, symObjAddr: 0x4FB3C, symBinAddr: 0x10005507C, symSize: 0x60 }
  - { offset: 0x38AEA, size: 0x8, addend: 0x0, symName: __ZNSt3__16__copyB8ne180100INS_17_ClassicAlgPolicyEPKiS3_NS_16__deque_iteratorIiPiRiPS5_lLl1024EEEEENS_4pairIT0_T2_EESA_T1_SB_, symObjAddr: 0x4FB9C, symBinAddr: 0x1000550DC, symSize: 0x290 }
  - { offset: 0x38B3E, size: 0x8, addend: 0x0, symName: __ZNKSt3__111__copy_loopINS_17_ClassicAlgPolicyEEclB8ne180100IPKiNS_16__deque_iteratorIiPiRiPS7_lLl1024EEELi0EEENS_4pairIT_T0_EESC_SC_SD_, symObjAddr: 0x50A70, symBinAddr: 0x100055FB0, symSize: 0x7A4 }
  - { offset: 0x38B46, size: 0x8, addend: 0x0, symName: __ZNSt3__19make_pairB8ne180100IPKiNS_16__deque_iteratorIiPiRiPS4_lLl1024EEEEENS_4pairINS_18__unwrap_ref_decayIT_E4typeENS9_IT0_E4typeEEEOSA_OSD_, symObjAddr: 0x51214, symBinAddr: 0x100056754, symSize: 0x38 }
  - { offset: 0x38C75, size: 0x8, addend: 0x0, symName: __ZNSt3__14pairIPKiS2_EC1B8ne180100ERKS2_S5_, symObjAddr: 0x514A0, symBinAddr: 0x1000569E0, symSize: 0x3C }
  - { offset: 0x38C7D, size: 0x8, addend: 0x0, symName: __ZNSt3__14pairIPKiS2_EC2B8ne180100ERKS2_S5_, symObjAddr: 0x514DC, symBinAddr: 0x100056A1C, symSize: 0x138 }
  - { offset: 0x38CCE, size: 0x8, addend: 0x0, symName: __ZNSt3__14pairIPKiS2_EC2B8ne180100ERKS2_S5_, symObjAddr: 0x514DC, symBinAddr: 0x100056A1C, symSize: 0x138 }
  - { offset: 0x38CD6, size: 0x8, addend: 0x0, symName: __ZNSt3__118__unwrap_iter_implIPKiLb1EE8__unwrapB8ne180100ES2_, symObjAddr: 0x51614, symBinAddr: 0x100056B54, symSize: 0x24 }
  - { offset: 0x38D27, size: 0x8, addend: 0x0, symName: __ZNSt3__118__unwrap_iter_implIPKiLb1EE8__unwrapB8ne180100ES2_, symObjAddr: 0x51614, symBinAddr: 0x100056B54, symSize: 0x24 }
  - { offset: 0x38D2F, size: 0x8, addend: 0x0, symName: __ZNSt3__112__to_addressB8ne180100IKiEEPT_S3_, symObjAddr: 0x51638, symBinAddr: 0x100056B78, symSize: 0x14 }
  - { offset: 0x38D55, size: 0x8, addend: 0x0, symName: __ZNSt3__127__segmented_iterator_traitsINS_16__deque_iteratorIiPiRiPS2_lLl1024EEEE7__localB8ne180100ES5_, symObjAddr: 0x5164C, symBinAddr: 0x100056B8C, symSize: 0x228 }
  - { offset: 0x38D5D, size: 0x8, addend: 0x0, symName: __ZNSt3__127__segmented_iterator_traitsINS_16__deque_iteratorIiPiRiPS2_lLl1024EEEE9__segmentB8ne180100ES5_, symObjAddr: 0x51874, symBinAddr: 0x100056DB4, symSize: 0x224 }
  - { offset: 0x38D88, size: 0x8, addend: 0x0, symName: __ZNSt3__127__segmented_iterator_traitsINS_16__deque_iteratorIiPiRiPS2_lLl1024EEEE9__segmentB8ne180100ES5_, symObjAddr: 0x51874, symBinAddr: 0x100056DB4, symSize: 0x224 }
  - { offset: 0x38D90, size: 0x8, addend: 0x0, symName: __ZNSt3__127__segmented_iterator_traitsINS_16__deque_iteratorIiPiRiPS2_lLl1024EEEE5__endB8ne180100ES4_, symObjAddr: 0x51A98, symBinAddr: 0x100056FD8, symSize: 0x64 }
  - { offset: 0x38DBB, size: 0x8, addend: 0x0, symName: __ZNSt3__127__segmented_iterator_traitsINS_16__deque_iteratorIiPiRiPS2_lLl1024EEEE5__endB8ne180100ES4_, symObjAddr: 0x51A98, symBinAddr: 0x100056FD8, symSize: 0x64 }
  - { offset: 0x38DC3, size: 0x8, addend: 0x0, symName: __ZNSt3__13minB8ne180100IlEERKT_S3_S3_, symObjAddr: 0x51AFC, symBinAddr: 0x10005703C, symSize: 0x2C }
  - { offset: 0x38DEA, size: 0x8, addend: 0x0, symName: __ZNSt3__127__segmented_iterator_traitsINS_16__deque_iteratorIiPiRiPS2_lLl1024EEEE9__composeB8ne180100ES4_S2_, symObjAddr: 0x51D4C, symBinAddr: 0x10005728C, symSize: 0x2A4 }
  - { offset: 0x38DF2, size: 0x8, addend: 0x0, symName: __ZNSt3__127__segmented_iterator_traitsINS_16__deque_iteratorIiPiRiPS2_lLl1024EEEE7__beginB8ne180100ES4_, symObjAddr: 0x51FF0, symBinAddr: 0x100057530, symSize: 0x60 }
  - { offset: 0x38E2E, size: 0x8, addend: 0x0, symName: __ZNSt3__127__segmented_iterator_traitsINS_16__deque_iteratorIiPiRiPS2_lLl1024EEEE7__beginB8ne180100ES4_, symObjAddr: 0x51FF0, symBinAddr: 0x100057530, symSize: 0x60 }
  - { offset: 0x38E36, size: 0x8, addend: 0x0, symName: __ZNSt3__13minB8ne180100IlNS_6__lessIvvEEEERKT_S5_S5_T0_, symObjAddr: 0x52050, symBinAddr: 0x100057590, symSize: 0x1E0 }
  - { offset: 0x38E5D, size: 0x8, addend: 0x0, symName: __ZNKSt3__16__lessIvvEclB8ne180100IllEEbRKT_RKT0_, symObjAddr: 0x52230, symBinAddr: 0x100057770, symSize: 0xBC }
  - { offset: 0x38E65, size: 0x8, addend: 0x0, symName: __ZNSt3__123__dispatch_copy_or_moveB8ne180100INS_17_ClassicAlgPolicyENS_11__copy_loopIS1_EENS_14__copy_trivialEPKiS6_PiEENS_4pairIT2_T4_EES9_T3_SA_, symObjAddr: 0x522EC, symBinAddr: 0x10005782C, symSize: 0x224 }
  - { offset: 0x38EF9, size: 0x8, addend: 0x0, symName: __ZNKSt3__114__copy_trivialclB8ne180100IKiiLi0EEENS_4pairIPT_PT0_EES5_S5_S7_, symObjAddr: 0x52AAC, symBinAddr: 0x100057FEC, symSize: 0x228 }
  - { offset: 0x38F01, size: 0x8, addend: 0x0, symName: __ZNSt3__19make_pairB8ne180100IPKiPiEENS_4pairINS_18__unwrap_ref_decayIT_E4typeENS5_IT0_E4typeEEEOS6_OS9_, symObjAddr: 0x52CD4, symBinAddr: 0x100058214, symSize: 0x204 }
  - { offset: 0x38F88, size: 0x8, addend: 0x0, symName: __ZNSt3__14pairIPKiPiEC1B8ne180100ERKS2_RKS3_, symObjAddr: 0x53530, symBinAddr: 0x100058A70, symSize: 0x3C }
  - { offset: 0x38F90, size: 0x8, addend: 0x0, symName: __ZNSt3__14pairIPKiPiEC2B8ne180100ERKS2_RKS3_, symObjAddr: 0x5356C, symBinAddr: 0x100058AAC, symSize: 0x138 }
  - { offset: 0x38FE1, size: 0x8, addend: 0x0, symName: __ZNSt3__14pairIPKiPiEC2B8ne180100ERKS2_RKS3_, symObjAddr: 0x5356C, symBinAddr: 0x100058AAC, symSize: 0x138 }
  - { offset: 0x38FE9, size: 0x8, addend: 0x0, symName: __ZNSt3__116__deque_iteratorIiPiRiPS1_lLl1024EEC1B8ne180100ES3_S1_, symObjAddr: 0x536A4, symBinAddr: 0x100058BE4, symSize: 0x3C }
  - { offset: 0x3903A, size: 0x8, addend: 0x0, symName: __ZNSt3__116__deque_iteratorIiPiRiPS1_lLl1024EEC1B8ne180100ES3_S1_, symObjAddr: 0x536A4, symBinAddr: 0x100058BE4, symSize: 0x3C }
  - { offset: 0x39042, size: 0x8, addend: 0x0, symName: __ZNSt3__116__deque_iteratorIiPiRiPS1_lLl1024EEC2B8ne180100ES3_S1_, symObjAddr: 0x536E0, symBinAddr: 0x100058C20, symSize: 0xBC }
  - { offset: 0x39095, size: 0x8, addend: 0x0, symName: __ZNSt3__116__deque_iteratorIiPiRiPS1_lLl1024EEC2B8ne180100ES3_S1_, symObjAddr: 0x536E0, symBinAddr: 0x100058C20, symSize: 0xBC }
  - { offset: 0x3909D, size: 0x8, addend: 0x0, symName: __ZNSt3__14pairIPKiNS_16__deque_iteratorIiPiRiPS4_lLl1024EEEEC1B8ne180100ERKS2_RKS7_, symObjAddr: 0x5379C, symBinAddr: 0x100058CDC, symSize: 0x3C }
  - { offset: 0x390F0, size: 0x8, addend: 0x0, symName: __ZNSt3__14pairIPKiNS_16__deque_iteratorIiPiRiPS4_lLl1024EEEEC1B8ne180100ERKS2_RKS7_, symObjAddr: 0x5379C, symBinAddr: 0x100058CDC, symSize: 0x3C }
  - { offset: 0x390F8, size: 0x8, addend: 0x0, symName: __ZNSt3__14pairIPKiNS_16__deque_iteratorIiPiRiPS4_lLl1024EEEEC2B8ne180100ERKS2_RKS7_, symObjAddr: 0x537D8, symBinAddr: 0x100058D18, symSize: 0xC8 }
  - { offset: 0x39149, size: 0x8, addend: 0x0, symName: __ZNSt3__14pairIPKiNS_16__deque_iteratorIiPiRiPS4_lLl1024EEEEC2B8ne180100ERKS2_RKS7_, symObjAddr: 0x537D8, symBinAddr: 0x100058D18, symSize: 0xC8 }
  - { offset: 0x39151, size: 0x8, addend: 0x0, symName: __ZNSt3__113__rewrap_iterB8ne180100IPKiS2_NS_18__unwrap_iter_implIS2_Lb1EEEEET_S5_T0_, symObjAddr: 0x538A0, symBinAddr: 0x100058DE0, symSize: 0x5C }
  - { offset: 0x391A2, size: 0x8, addend: 0x0, symName: __ZNSt3__118__unwrap_iter_implIPKiLb1EE8__rewrapB8ne180100ES2_S2_, symObjAddr: 0x538FC, symBinAddr: 0x100058E3C, symSize: 0x50 }
  - { offset: 0x391AA, size: 0x8, addend: 0x0, symName: __ZNSt3__111__copy_loopINS_17_ClassicAlgPolicyEE12_CopySegmentINS_16__deque_iteratorIiPKiRS5_PKS6_lLl1024EEENS4_IiPiRiPSB_lLl1024EEEEC2B8ne180100ERSE_, symObjAddr: 0x5394C, symBinAddr: 0x100058E8C, symSize: 0x70 }
  - { offset: 0x391E2, size: 0x8, addend: 0x0, symName: __ZNSt3__111__copy_loopINS_17_ClassicAlgPolicyEE12_CopySegmentINS_16__deque_iteratorIiPKiRS5_PKS6_lLl1024EEENS4_IiPiRiPSB_lLl1024EEEEC2B8ne180100ERSE_, symObjAddr: 0x5394C, symBinAddr: 0x100058E8C, symSize: 0x70 }
  - { offset: 0x391EA, size: 0x8, addend: 0x0, symName: __ZNSt3__14pairINS_16__deque_iteratorIiPKiRS2_PKS3_lLl1024EEENS1_IiPiRiPS8_lLl1024EEEEC1B8ne180100ERKS7_RKSB_, symObjAddr: 0x539BC, symBinAddr: 0x100058EFC, symSize: 0x3C }
  - { offset: 0x39229, size: 0x8, addend: 0x0, symName: __ZNSt3__14pairINS_16__deque_iteratorIiPKiRS2_PKS3_lLl1024EEENS1_IiPiRiPS8_lLl1024EEEEC1B8ne180100ERKS7_RKSB_, symObjAddr: 0x539BC, symBinAddr: 0x100058EFC, symSize: 0x3C }
  - { offset: 0x39231, size: 0x8, addend: 0x0, symName: __ZNSt3__14pairINS_16__deque_iteratorIiPKiRS2_PKS3_lLl1024EEENS1_IiPiRiPS8_lLl1024EEEEC2B8ne180100ERKS7_RKSB_, symObjAddr: 0x539F8, symBinAddr: 0x100058F38, symSize: 0x54 }
  - { offset: 0x39282, size: 0x8, addend: 0x0, symName: __ZNSt3__14pairINS_16__deque_iteratorIiPKiRS2_PKS3_lLl1024EEENS1_IiPiRiPS8_lLl1024EEEEC2B8ne180100ERKS7_RKSB_, symObjAddr: 0x539F8, symBinAddr: 0x100058F38, symSize: 0x54 }
  - { offset: 0x3928A, size: 0x8, addend: 0x0, symName: __ZNSt3__118__unwrap_iter_implINS_16__deque_iteratorIiPiRiPS2_lLl1024EEELb0EE8__unwrapB8ne180100ES5_, symObjAddr: 0x53A4C, symBinAddr: 0x100058F8C, symSize: 0x264 }
  - { offset: 0x392DB, size: 0x8, addend: 0x0, symName: __ZNSt3__118__unwrap_iter_implINS_16__deque_iteratorIiPiRiPS2_lLl1024EEELb0EE8__unwrapB8ne180100ES5_, symObjAddr: 0x53A4C, symBinAddr: 0x100058F8C, symSize: 0x264 }
  - { offset: 0x392E3, size: 0x8, addend: 0x0, symName: __ZNSt3__113__rewrap_iterB8ne180100INS_16__deque_iteratorIiPKiRS2_PKS3_lLl1024EEES7_NS_18__unwrap_iter_implIS7_Lb0EEEEET_SA_T0_, symObjAddr: 0x53CB0, symBinAddr: 0x1000591F0, symSize: 0x460 }
  - { offset: 0x3930D, size: 0x8, addend: 0x0, symName: __ZNSt3__118__unwrap_iter_implINS_16__deque_iteratorIiPKiRS2_PKS3_lLl1024EEELb0EE8__rewrapB8ne180100ES7_S7_, symObjAddr: 0x54110, symBinAddr: 0x100059650, symSize: 0x2D0 }
  - { offset: 0x39315, size: 0x8, addend: 0x0, symName: __ZNSt3__118__unwrap_iter_implINS_16__deque_iteratorIiPiRiPS2_lLl1024EEELb0EE8__rewrapB8ne180100ES5_S5_, symObjAddr: 0x543E0, symBinAddr: 0x100059920, symSize: 0x2D0 }
  - { offset: 0x39351, size: 0x8, addend: 0x0, symName: __ZNSt3__118__unwrap_iter_implINS_16__deque_iteratorIiPiRiPS2_lLl1024EEELb0EE8__rewrapB8ne180100ES5_S5_, symObjAddr: 0x543E0, symBinAddr: 0x100059920, symSize: 0x2D0 }
  - { offset: 0x39359, size: 0x8, addend: 0x0, symName: __ZNKSt3__15dequeIiNS_9allocatorIiEEE22__annotate_shrink_backB8ne180100Emm, symObjAddr: 0x546B0, symBinAddr: 0x100059BF0, symSize: 0x60 }
  - { offset: 0x39395, size: 0x8, addend: 0x0, symName: __ZNKSt3__15dequeIiNS_9allocatorIiEEE22__annotate_shrink_backB8ne180100Emm, symObjAddr: 0x546B0, symBinAddr: 0x100059BF0, symSize: 0x60 }
  - { offset: 0x3939D, size: 0x8, addend: 0x0, symName: __ZNSt3__15dequeIiNS_9allocatorIiEEE25__maybe_remove_back_spareB8ne180100Eb, symObjAddr: 0x54710, symBinAddr: 0x100059C50, symSize: 0x128 }
  - { offset: 0x393EC, size: 0x8, addend: 0x0, symName: __ZNSt3__15dequeIiNS_9allocatorIiEEE25__maybe_remove_back_spareB8ne180100Eb, symObjAddr: 0x54710, symBinAddr: 0x100059C50, symSize: 0x128 }
  - { offset: 0x393F4, size: 0x8, addend: 0x0, symName: __ZNKSt3__15dequeIiNS_9allocatorIiEEE19__back_spare_blocksB8ne180100Ev, symObjAddr: 0x54838, symBinAddr: 0x100059D78, symSize: 0x2C }
  - { offset: 0x39430, size: 0x8, addend: 0x0, symName: __ZNKSt3__15dequeIiNS_9allocatorIiEEE19__back_spare_blocksB8ne180100Ev, symObjAddr: 0x54838, symBinAddr: 0x100059D78, symSize: 0x2C }
  - { offset: 0x39438, size: 0x8, addend: 0x0, symName: __ZNSt3__114__split_bufferIPiNS_9allocatorIS1_EEE4backB8ne180100Ev, symObjAddr: 0x54864, symBinAddr: 0x100059DA4, symSize: 0x68 }
  - { offset: 0x39461, size: 0x8, addend: 0x0, symName: __ZNSt3__114__split_bufferIPiNS_9allocatorIS1_EEE4backB8ne180100Ev, symObjAddr: 0x54864, symBinAddr: 0x100059DA4, symSize: 0x68 }
  - { offset: 0x39469, size: 0x8, addend: 0x0, symName: __ZNSt3__114__split_bufferIPiNS_9allocatorIS1_EEE8pop_backB8ne180100Ev, symObjAddr: 0x548CC, symBinAddr: 0x100059E0C, symSize: 0x6C }
  - { offset: 0x39492, size: 0x8, addend: 0x0, symName: __ZNSt3__114__split_bufferIPiNS_9allocatorIS1_EEE8pop_backB8ne180100Ev, symObjAddr: 0x548CC, symBinAddr: 0x100059E0C, symSize: 0x6C }
  - { offset: 0x3949A, size: 0x8, addend: 0x0, symName: __ZNSt3__116__deque_iteratorIiPKiRS1_PKS2_lLl1024EEC2B8ne180100IPiRiPS8_Li0EEERKNS0_IiT_T0_T1_lLl1024EEE, symObjAddr: 0x54938, symBinAddr: 0x100059E78, symSize: 0x138 }
  - { offset: 0x394C3, size: 0x8, addend: 0x0, symName: __ZNSt3__116__deque_iteratorIiPKiRS1_PKS2_lLl1024EEC2B8ne180100IPiRiPS8_Li0EEERKNS0_IiT_T0_T1_lLl1024EEE, symObjAddr: 0x54938, symBinAddr: 0x100059E78, symSize: 0x138 }
  - { offset: 0x394CB, size: 0x8, addend: 0x0, symName: _asan.module_ctor, symObjAddr: 0x54A70, symBinAddr: 0x100059FB0, symSize: 0x34 }
...
